;-------------------------------------------------------------------------------
;                                                                              -
;  Module 60: D:\SOURCE\global.cpp                                             -
;                                                                              -
;-------------------------------------------------------------------------------

;-------------------------------------------------
;  Function 'BOYLE_ADMITTED_BURNING_DOWN_THE_NE  -
;  WSPAPER_BLDG'                                 -
;-------------------------------------------------
BOYLE_ADMITTED_BURNING_DOWN_THE_NEWSPAPER_BLDG:
   28230:	85 c0                	test   eax,eax
   28232:	75 06                	jne    BOYLE_ADMITTED_BURNING_DOWN_THE_NEWSPAPER_BLDG_branch_1
   28234:	89 15 98 2e 02 00    	mov    DWORD PTR ds:@obj3:GLOBAL,edx                                ; fixup: num: 6496, src obj: 1, src ofs: 0x28236, dst obj: 3, dst ofs: 0x22e98
BOYLE_ADMITTED_BURNING_DOWN_THE_NEWSPAPER_BLDG_branch_1:
   2823a:	a1 98 2e 02 00       	mov    eax,ds:@obj3:GLOBAL                                          ; fixup: num: 6495, src obj: 1, src ofs: 0x2823b, dst obj: 3, dst ofs: 0x22e98
   2823f:	c3                   	ret    

;-------------------------------------------------
;  Function 'BOYLE_SPOKE_OF_GAS_CAN'             -
;-------------------------------------------------
BOYLE_SPOKE_OF_GAS_CAN:
   28240:	85 c0                	test   eax,eax
   28242:	75 06                	jne    BOYLE_SPOKE_OF_GAS_CAN_branch_1
   28244:	89 15 9c 2e 02 00    	mov    DWORD PTR ds:@obj3:GLOBAL_variable_1,edx                     ; fixup: num: 6494, src obj: 1, src ofs: 0x28246, dst obj: 3, dst ofs: 0x22e9c
BOYLE_SPOKE_OF_GAS_CAN_branch_1:
   2824a:	a1 9c 2e 02 00       	mov    eax,ds:@obj3:GLOBAL_variable_1                               ; fixup: num: 6493, src obj: 1, src ofs: 0x2824b, dst obj: 3, dst ofs: 0x22e9c
   2824f:	c3                   	ret    

;-------------------------------------------------
;  Function 'PC_HEARD_OF_KARINS_KIDNAPPING'      -
;-------------------------------------------------
PC_HEARD_OF_KARINS_KIDNAPPING:
   28250:	85 c0                	test   eax,eax
   28252:	75 06                	jne    PC_HEARD_OF_KARINS_KIDNAPPING_branch_1
   28254:	89 15 cc 2e 02 00    	mov    DWORD PTR ds:@obj3:GLOBAL_variable_13,edx                    ; fixup: num: 6492, src obj: 1, src ofs: 0x28256, dst obj: 3, dst ofs: 0x22ecc
PC_HEARD_OF_KARINS_KIDNAPPING_branch_1:
   2825a:	a1 cc 2e 02 00       	mov    eax,ds:@obj3:GLOBAL_variable_13                              ; fixup: num: 6491, src obj: 1, src ofs: 0x2825b, dst obj: 3, dst ofs: 0x22ecc
   2825f:	c3                   	ret    

;-------------------------------------------------
;  Function 'DAY_AFTER_PC_RESCUED_KARIN'         -
;-------------------------------------------------
DAY_AFTER_PC_RESCUED_KARIN:
   28260:	85 c0                	test   eax,eax
   28262:	75 06                	jne    DAY_AFTER_PC_RESCUED_KARIN_branch_1
   28264:	89 15 a0 2e 02 00    	mov    DWORD PTR ds:@obj3:GLOBAL_variable_2,edx                     ; fixup: num: 6490, src obj: 1, src ofs: 0x28266, dst obj: 3, dst ofs: 0x22ea0
DAY_AFTER_PC_RESCUED_KARIN_branch_1:
   2826a:	a1 a0 2e 02 00       	mov    eax,ds:@obj3:GLOBAL_variable_2                               ; fixup: num: 6489, src obj: 1, src ofs: 0x2826b, dst obj: 3, dst ofs: 0x22ea0
   2826f:	c3                   	ret    

;-------------------------------------------------
;  Function 'DNA_DINER_LIGHT_MIDGAME_PLAYED'     -
;-------------------------------------------------
DNA_DINER_LIGHT_MIDGAME_PLAYED:
   28270:	85 c0                	test   eax,eax
   28272:	75 06                	jne    DNA_DINER_LIGHT_MIDGAME_PLAYED_branch_1
   28274:	89 15 a4 2e 02 00    	mov    DWORD PTR ds:@obj3:GLOBAL_variable_3,edx                     ; fixup: num: 6488, src obj: 1, src ofs: 0x28276, dst obj: 3, dst ofs: 0x22ea4
DNA_DINER_LIGHT_MIDGAME_PLAYED_branch_1:
   2827a:	a1 a4 2e 02 00       	mov    eax,ds:@obj3:GLOBAL_variable_3                               ; fixup: num: 6487, src obj: 1, src ofs: 0x2827b, dst obj: 3, dst ofs: 0x22ea4
   2827f:	c3                   	ret    

;-------------------------------------------------
;  Function 'DNA_SUICIDE_MIDGAME_PLAYED'         -
;-------------------------------------------------
DNA_SUICIDE_MIDGAME_PLAYED:
   28280:	85 c0                	test   eax,eax
   28282:	75 06                	jne    DNA_SUICIDE_MIDGAME_PLAYED_branch_1
   28284:	89 15 a8 2e 02 00    	mov    DWORD PTR ds:@obj3:GLOBAL_variable_4,edx                     ; fixup: num: 6486, src obj: 1, src ofs: 0x28286, dst obj: 3, dst ofs: 0x22ea8
DNA_SUICIDE_MIDGAME_PLAYED_branch_1:
   2828a:	a1 a8 2e 02 00       	mov    eax,ds:@obj3:GLOBAL_variable_4                               ; fixup: num: 6485, src obj: 1, src ofs: 0x2828b, dst obj: 3, dst ofs: 0x22ea8
   2828f:	c3                   	ret    

;-------------------------------------------------
;  Function 'FOUND_BOYLES_BUTTON'                -
;-------------------------------------------------
FOUND_BOYLES_BUTTON:
   28290:	85 c0                	test   eax,eax
   28292:	75 06                	jne    FOUND_BOYLES_BUTTON_branch_1
   28294:	89 15 ac 2e 02 00    	mov    DWORD PTR ds:@obj3:GLOBAL_variable_5,edx                     ; fixup: num: 6598, src obj: 1, src ofs: 0x28296, dst obj: 3, dst ofs: 0x22eac
FOUND_BOYLES_BUTTON_branch_1:
   2829a:	a1 ac 2e 02 00       	mov    eax,ds:@obj3:GLOBAL_variable_5                               ; fixup: num: 6597, src obj: 1, src ofs: 0x2829b, dst obj: 3, dst ofs: 0x22eac
   2829f:	c3                   	ret    

;-------------------------------------------------
;  Function 'GIVEN_BUTTON_BACK'                  -
;-------------------------------------------------
GIVEN_BUTTON_BACK:
   282a0:	85 c0                	test   eax,eax
   282a2:	75 06                	jne    GIVEN_BUTTON_BACK_branch_1
   282a4:	89 15 b0 2e 02 00    	mov    DWORD PTR ds:@obj3:GLOBAL_variable_6,edx                     ; fixup: num: 6596, src obj: 1, src ofs: 0x282a6, dst obj: 3, dst ofs: 0x22eb0
GIVEN_BUTTON_BACK_branch_1:
   282aa:	a1 b0 2e 02 00       	mov    eax,ds:@obj3:GLOBAL_variable_6                               ; fixup: num: 6595, src obj: 1, src ofs: 0x282ab, dst obj: 3, dst ofs: 0x22eb0
   282af:	c3                   	ret    

;-------------------------------------------------
;  Function 'GOTTEN_FATHER_S_SIGNATURE'          -
;-------------------------------------------------
GOTTEN_FATHER_S_SIGNATURE:
   282b0:	85 c0                	test   eax,eax
   282b2:	75 06                	jne    GOTTEN_FATHER_S_SIGNATURE_branch_1
   282b4:	89 15 b4 2e 02 00    	mov    DWORD PTR ds:@obj3:GLOBAL_variable_7,edx                     ; fixup: num: 6594, src obj: 1, src ofs: 0x282b6, dst obj: 3, dst ofs: 0x22eb4
GOTTEN_FATHER_S_SIGNATURE_branch_1:
   282ba:	a1 b4 2e 02 00       	mov    eax,ds:@obj3:GLOBAL_variable_7                               ; fixup: num: 6593, src obj: 1, src ofs: 0x282bb, dst obj: 3, dst ofs: 0x22eb4
   282bf:	c3                   	ret    

;-------------------------------------------------
;  Function 'MIDGAME_ONE_PLAYED'                 -
;-------------------------------------------------
MIDGAME_ONE_PLAYED:
   282c0:	85 c0                	test   eax,eax
   282c2:	75 06                	jne    MIDGAME_ONE_PLAYED_branch_1
   282c4:	89 15 b8 2e 02 00    	mov    DWORD PTR ds:@obj3:GLOBAL_variable_8,edx                     ; fixup: num: 6592, src obj: 1, src ofs: 0x282c6, dst obj: 3, dst ofs: 0x22eb8
MIDGAME_ONE_PLAYED_branch_1:
   282ca:	a1 b8 2e 02 00       	mov    eax,ds:@obj3:GLOBAL_variable_8                               ; fixup: num: 6591, src obj: 1, src ofs: 0x282cb, dst obj: 3, dst ofs: 0x22eb8
   282cf:	c3                   	ret    

;-------------------------------------------------
;  Function 'MOYNAHAN_SAID_CORPSE_DIED_OF_NATUR  -
;  AL_CAUSES'                                    -
;-------------------------------------------------
MOYNAHAN_SAID_CORPSE_DIED_OF_NATURAL_CAUSES:
   282d0:	85 c0                	test   eax,eax
   282d2:	75 06                	jne    MOYNAHAN_SAID_CORPSE_DIED_OF_NATURAL_CAUSES_branch_1
   282d4:	89 15 bc 2e 02 00    	mov    DWORD PTR ds:@obj3:GLOBAL_variable_9,edx                     ; fixup: num: 6590, src obj: 1, src ofs: 0x282d6, dst obj: 3, dst ofs: 0x22ebc
MOYNAHAN_SAID_CORPSE_DIED_OF_NATURAL_CAUSES_branch_1:
   282da:	a1 bc 2e 02 00       	mov    eax,ds:@obj3:GLOBAL_variable_9                               ; fixup: num: 6589, src obj: 1, src ofs: 0x282db, dst obj: 3, dst ofs: 0x22ebc
   282df:	c3                   	ret    

;-------------------------------------------------
;  Function 'MOYNAHAN_SAID_CORPSE_IS_A_HOBO'     -
;-------------------------------------------------
MOYNAHAN_SAID_CORPSE_IS_A_HOBO:
   282e0:	85 c0                	test   eax,eax
   282e2:	75 06                	jne    MOYNAHAN_SAID_CORPSE_IS_A_HOBO_branch_1
   282e4:	89 15 c0 2e 02 00    	mov    DWORD PTR ds:@obj3:GLOBAL_variable_10,edx                    ; fixup: num: 6518, src obj: 1, src ofs: 0x282e6, dst obj: 3, dst ofs: 0x22ec0
MOYNAHAN_SAID_CORPSE_IS_A_HOBO_branch_1:
   282ea:	a1 c0 2e 02 00       	mov    eax,ds:@obj3:GLOBAL_variable_10                              ; fixup: num: 6517, src obj: 1, src ofs: 0x282eb, dst obj: 3, dst ofs: 0x22ec0
   282ef:	c3                   	ret    

;-------------------------------------------------
;  Function                                      -
;  'MOYNAHAN_SAID_HE_SAW_POTTSDAM_AT_CEMETARY'   -
;-------------------------------------------------
MOYNAHAN_SAID_HE_SAW_POTTSDAM_AT_CEMETARY:
   282f0:	85 c0                	test   eax,eax
   282f2:	75 06                	jne    MOYNAHAN_SAID_HE_SAW_POTTSDAM_AT_CEMETARY_branch_1
   282f4:	89 15 c4 2e 02 00    	mov    DWORD PTR ds:@obj3:GLOBAL_variable_11,edx                    ; fixup: num: 6516, src obj: 1, src ofs: 0x282f6, dst obj: 3, dst ofs: 0x22ec4
MOYNAHAN_SAID_HE_SAW_POTTSDAM_AT_CEMETARY_branch_1:
   282fa:	a1 c4 2e 02 00       	mov    eax,ds:@obj3:GLOBAL_variable_11                              ; fixup: num: 6515, src obj: 1, src ofs: 0x282fb, dst obj: 3, dst ofs: 0x22ec4
   282ff:	c3                   	ret    

;-------------------------------------------------
;  Function                                      -
;  'MOYNAHAN_TOLD_YOU_ABOUT_CORPSE_IN_MORTUARY'  -
;-------------------------------------------------
MOYNAHAN_TOLD_YOU_ABOUT_CORPSE_IN_MORTUARY:
   28300:	85 c0                	test   eax,eax
   28302:	75 06                	jne    MOYNAHAN_TOLD_YOU_ABOUT_CORPSE_IN_MORTUARY_branch_1
   28304:	89 15 c8 2e 02 00    	mov    DWORD PTR ds:@obj3:GLOBAL_variable_12,edx                    ; fixup: num: 6514, src obj: 1, src ofs: 0x28306, dst obj: 3, dst ofs: 0x22ec8
MOYNAHAN_TOLD_YOU_ABOUT_CORPSE_IN_MORTUARY_branch_1:
   2830a:	a1 c8 2e 02 00       	mov    eax,ds:@obj3:GLOBAL_variable_12                              ; fixup: num: 6513, src obj: 1, src ofs: 0x2830b, dst obj: 3, dst ofs: 0x22ec8
   2830f:	c3                   	ret    

;-------------------------------------------------
;  Function 'SEEN_FATHER'                        -
;-------------------------------------------------
SEEN_FATHER:
   28310:	85 c0                	test   eax,eax
   28312:	75 06                	jne    SEEN_FATHER_branch_1
   28314:	89 15 d0 2e 02 00    	mov    DWORD PTR ds:@obj3:GLOBAL_variable_14,edx                    ; fixup: num: 6512, src obj: 1, src ofs: 0x28316, dst obj: 3, dst ofs: 0x22ed0
SEEN_FATHER_branch_1:
   2831a:	a1 d0 2e 02 00       	mov    eax,ds:@obj3:GLOBAL_variable_14                              ; fixup: num: 6511, src obj: 1, src ofs: 0x2831b, dst obj: 3, dst ofs: 0x22ed0
   2831f:	c3                   	ret    

;-------------------------------------------------
;  Function 'SHOWN_BUTTON_AROUND'                -
;-------------------------------------------------
SHOWN_BUTTON_AROUND:
   28320:	85 c0                	test   eax,eax
   28322:	75 06                	jne    SHOWN_BUTTON_AROUND_branch_1
   28324:	89 15 d4 2e 02 00    	mov    DWORD PTR ds:@obj3:GLOBAL_variable_15,edx                    ; fixup: num: 6510, src obj: 1, src ofs: 0x28326, dst obj: 3, dst ofs: 0x22ed4
SHOWN_BUTTON_AROUND_branch_1:
   2832a:	a1 d4 2e 02 00       	mov    eax,ds:@obj3:GLOBAL_variable_15                              ; fixup: num: 6509, src obj: 1, src ofs: 0x2832b, dst obj: 3, dst ofs: 0x22ed4
   2832f:	c3                   	ret    

;-------------------------------------------------
;  Function                                      -
;  'SHOWN_EVIDENCE_OF_BLACKMAIL_AROUND'          -
;-------------------------------------------------
SHOWN_EVIDENCE_OF_BLACKMAIL_AROUND:
   28330:	85 c0                	test   eax,eax
   28332:	75 06                	jne    SHOWN_EVIDENCE_OF_BLACKMAIL_AROUND_branch_1
   28334:	89 15 d8 2e 02 00    	mov    DWORD PTR ds:@obj3:GLOBAL_variable_16,edx                    ; fixup: num: 6508, src obj: 1, src ofs: 0x28336, dst obj: 3, dst ofs: 0x22ed8
SHOWN_EVIDENCE_OF_BLACKMAIL_AROUND_branch_1:
   2833a:	a1 d8 2e 02 00       	mov    eax,ds:@obj3:GLOBAL_variable_16                              ; fixup: num: 6507, src obj: 1, src ofs: 0x2833b, dst obj: 3, dst ofs: 0x22ed8
   2833f:	c3                   	ret    

;-------------------------------------------------
;  Function 'SHOWN_EVIDENCE_SHERIFF_OWNS_TV_STA  -
;  TION_AROUND'                                  -
;-------------------------------------------------
SHOWN_EVIDENCE_SHERIFF_OWNS_TV_STATION_AROUND:
   28340:	85 c0                	test   eax,eax
   28342:	75 06                	jne    SHOWN_EVIDENCE_SHERIFF_OWNS_TV_STATION_AROUND_branch_1
   28344:	89 15 dc 2e 02 00    	mov    DWORD PTR ds:@obj3:GLOBAL_variable_17,edx                    ; fixup: num: 6506, src obj: 1, src ofs: 0x28346, dst obj: 3, dst ofs: 0x22edc
SHOWN_EVIDENCE_SHERIFF_OWNS_TV_STATION_AROUND_branch_1:
   2834a:	a1 dc 2e 02 00       	mov    eax,ds:@obj3:GLOBAL_variable_17                              ; fixup: num: 6505, src obj: 1, src ofs: 0x2834b, dst obj: 3, dst ofs: 0x22edc
   2834f:	c3                   	ret    

;-------------------------------------------------
;  Function                                      -
;  'SHOWN_LEDGERS_TO_ANYONE_OTHER_THAN_SHERIFF'  -
;-------------------------------------------------
SHOWN_LEDGERS_TO_ANYONE_OTHER_THAN_SHERIFF:
   28350:	85 c0                	test   eax,eax
   28352:	75 06                	jne    SHOWN_LEDGERS_TO_ANYONE_OTHER_THAN_SHERIFF_branch_1
   28354:	89 15 e0 2e 02 00    	mov    DWORD PTR ds:@obj3:GLOBAL_variable_18,edx                    ; fixup: num: 6504, src obj: 1, src ofs: 0x28356, dst obj: 3, dst ofs: 0x22ee0
SHOWN_LEDGERS_TO_ANYONE_OTHER_THAN_SHERIFF_branch_1:
   2835a:	a1 e0 2e 02 00       	mov    eax,ds:@obj3:GLOBAL_variable_18                              ; fixup: num: 6503, src obj: 1, src ofs: 0x2835b, dst obj: 3, dst ofs: 0x22ee0
   2835f:	c3                   	ret    

;-------------------------------------------------
;  Function 'SHOWN_PHOTO_OF_CORPSE_AROUND'       -
;-------------------------------------------------
SHOWN_PHOTO_OF_CORPSE_AROUND:
   28360:	85 c0                	test   eax,eax
   28362:	75 06                	jne    SHOWN_PHOTO_OF_CORPSE_AROUND_branch_1
   28364:	89 15 e4 2e 02 00    	mov    DWORD PTR ds:@obj3:GLOBAL_variable_19,edx                    ; fixup: num: 6502, src obj: 1, src ofs: 0x28366, dst obj: 3, dst ofs: 0x22ee4
SHOWN_PHOTO_OF_CORPSE_AROUND_branch_1:
   2836a:	a1 e4 2e 02 00       	mov    eax,ds:@obj3:GLOBAL_variable_19                              ; fixup: num: 6501, src obj: 1, src ofs: 0x2836b, dst obj: 3, dst ofs: 0x22ee4
   2836f:	c3                   	ret    

;-------------------------------------------------
;  Function                                      -
;  'SHOWN_PHOTO_OF_WHALEY_HERRILL_AROUND'        -
;-------------------------------------------------
SHOWN_PHOTO_OF_WHALEY_HERRILL_AROUND:
   28370:	85 c0                	test   eax,eax
   28372:	75 06                	jne    SHOWN_PHOTO_OF_WHALEY_HERRILL_AROUND_branch_1
   28374:	89 15 e8 2e 02 00    	mov    DWORD PTR ds:@obj3:GLOBAL_variable_20,edx                    ; fixup: num: 6500, src obj: 1, src ofs: 0x28376, dst obj: 3, dst ofs: 0x22ee8
SHOWN_PHOTO_OF_WHALEY_HERRILL_AROUND_branch_1:
   2837a:	a1 e8 2e 02 00       	mov    eax,ds:@obj3:GLOBAL_variable_20                              ; fixup: num: 6499, src obj: 1, src ofs: 0x2837b, dst obj: 3, dst ofs: 0x22ee8
   2837f:	c3                   	ret    

;-------------------------------------------------
;  Function                                      -
;  'SHOW_EVIDENCE_SHERIFF_OWNS_TV_STATION'       -
;-------------------------------------------------
SHOW_EVIDENCE_SHERIFF_OWNS_TV_STATION:
   28380:	85 c0                	test   eax,eax
   28382:	75 06                	jne    SHOW_EVIDENCE_SHERIFF_OWNS_TV_STATION_branch_1
   28384:	89 15 ec 2e 02 00    	mov    DWORD PTR ds:@obj3:GLOBAL_variable_21,edx                    ; fixup: num: 6498, src obj: 1, src ofs: 0x28386, dst obj: 3, dst ofs: 0x22eec
SHOW_EVIDENCE_SHERIFF_OWNS_TV_STATION_branch_1:
   2838a:	a1 ec 2e 02 00       	mov    eax,ds:@obj3:GLOBAL_variable_21                              ; fixup: num: 6497, src obj: 1, src ofs: 0x2838b, dst obj: 3, dst ofs: 0x22eec
   2838f:	c3                   	ret    

;-------------------------------------------------
;  Function 'SHOW_SHERIFF_KARIN_S_PURSE'         -
;-------------------------------------------------
SHOW_SHERIFF_KARIN_S_PURSE:
   28390:	85 c0                	test   eax,eax
   28392:	75 06                	jne    SHOW_SHERIFF_KARIN_S_PURSE_branch_1
   28394:	89 15 f0 2e 02 00    	mov    DWORD PTR ds:@obj3:GLOBAL_variable_22,edx                    ; fixup: num: 6539, src obj: 1, src ofs: 0x28396, dst obj: 3, dst ofs: 0x22ef0
SHOW_SHERIFF_KARIN_S_PURSE_branch_1:
   2839a:	a1 f0 2e 02 00       	mov    eax,ds:@obj3:GLOBAL_variable_22                              ; fixup: num: 6538, src obj: 1, src ofs: 0x2839b, dst obj: 3, dst ofs: 0x22ef0
   2839f:	c3                   	ret    

;-------------------------------------------------
;  Function 'SPOKEN_WITH_MOM'                    -
;-------------------------------------------------
SPOKEN_WITH_MOM:
   283a0:	85 c0                	test   eax,eax
   283a2:	75 06                	jne    SPOKEN_WITH_MOM_branch_1
   283a4:	89 15 f4 2e 02 00    	mov    DWORD PTR ds:@obj3:GLOBAL_variable_23,edx                    ; fixup: num: 6537, src obj: 1, src ofs: 0x283a6, dst obj: 3, dst ofs: 0x22ef4
SPOKEN_WITH_MOM_branch_1:
   283aa:	a1 f4 2e 02 00       	mov    eax,ds:@obj3:GLOBAL_variable_23                              ; fixup: num: 6536, src obj: 1, src ofs: 0x283ab, dst obj: 3, dst ofs: 0x22ef4
   283af:	c3                   	ret    

;-------------------------------------------------
;  Function 'SPOKE_TO_MOM_ABOUT_DAD'             -
;-------------------------------------------------
SPOKE_TO_MOM_ABOUT_DAD:
   283b0:	85 c0                	test   eax,eax
   283b2:	75 06                	jne    SPOKE_TO_MOM_ABOUT_DAD_branch_1
   283b4:	89 15 f8 2e 02 00    	mov    DWORD PTR ds:@obj3:GLOBAL_variable_24,edx                    ; fixup: num: 6535, src obj: 1, src ofs: 0x283b6, dst obj: 3, dst ofs: 0x22ef8
SPOKE_TO_MOM_ABOUT_DAD_branch_1:
   283ba:	a1 f8 2e 02 00       	mov    eax,ds:@obj3:GLOBAL_variable_24                              ; fixup: num: 6534, src obj: 1, src ofs: 0x283bb, dst obj: 3, dst ofs: 0x22ef8
   283bf:	c3                   	ret    

;-------------------------------------------------
;  Function                                      -
;  'TALKED_TO_MR_MOYNAHAN_ABOUT_BAKE_SALE'       -
;-------------------------------------------------
TALKED_TO_MR_MOYNAHAN_ABOUT_BAKE_SALE:
   283c0:	85 c0                	test   eax,eax
   283c2:	75 06                	jne    TALKED_TO_MR_MOYNAHAN_ABOUT_BAKE_SALE_branch_1
   283c4:	89 15 fc 2e 02 00    	mov    DWORD PTR ds:@obj3:GLOBAL_variable_25,edx                    ; fixup: num: 6533, src obj: 1, src ofs: 0x283c6, dst obj: 3, dst ofs: 0x22efc
TALKED_TO_MR_MOYNAHAN_ABOUT_BAKE_SALE_branch_1:
   283ca:	a1 fc 2e 02 00       	mov    eax,ds:@obj3:GLOBAL_variable_25                              ; fixup: num: 6532, src obj: 1, src ofs: 0x283cb, dst obj: 3, dst ofs: 0x22efc
   283cf:	c3                   	ret    

;-------------------------------------------------
;  Function 'TURNED_IN_APPLICATION'              -
;-------------------------------------------------
TURNED_IN_APPLICATION:
   283d0:	85 c0                	test   eax,eax
   283d2:	75 06                	jne    TURNED_IN_APPLICATION_branch_1
   283d4:	89 15 00 2f 02 00    	mov    DWORD PTR ds:@obj3:GLOBAL_variable_26,edx                    ; fixup: num: 6531, src obj: 1, src ofs: 0x283d6, dst obj: 3, dst ofs: 0x22f00
TURNED_IN_APPLICATION_branch_1:
   283da:	a1 00 2f 02 00       	mov    eax,ds:@obj3:GLOBAL_variable_26                              ; fixup: num: 6530, src obj: 1, src ofs: 0x283db, dst obj: 3, dst ofs: 0x22f00
   283df:	c3                   	ret    

;-------------------------------------------------
;  Function 'IF_SOMEONE_ELSE_HAS_SAID_THAT'      -
;-------------------------------------------------
IF_SOMEONE_ELSE_HAS_SAID_THAT:
   283e0:	85 c0                	test   eax,eax
   283e2:	75 06                	jne    IF_SOMEONE_ELSE_HAS_SAID_THAT_branch_1
   283e4:	89 15 04 2f 02 00    	mov    DWORD PTR ds:@obj3:GLOBAL_variable_27,edx                    ; fixup: num: 6529, src obj: 1, src ofs: 0x283e6, dst obj: 3, dst ofs: 0x22f04
IF_SOMEONE_ELSE_HAS_SAID_THAT_branch_1:
   283ea:	a1 04 2f 02 00       	mov    eax,ds:@obj3:GLOBAL_variable_27                              ; fixup: num: 6528, src obj: 1, src ofs: 0x283eb, dst obj: 3, dst ofs: 0x22f04
   283ef:	c3                   	ret    

;-------------------------------------------------
;  Function 'SPOKE_WITH_THE_SERGEANT_AT_ARMS'    -
;-------------------------------------------------
SPOKE_WITH_THE_SERGEANT_AT_ARMS:
   283f0:	85 c0                	test   eax,eax
   283f2:	75 06                	jne    SPOKE_WITH_THE_SERGEANT_AT_ARMS_branch_1
   283f4:	89 15 08 2f 02 00    	mov    DWORD PTR ds:@obj3:GLOBAL_variable_28,edx                    ; fixup: num: 6527, src obj: 1, src ofs: 0x283f6, dst obj: 3, dst ofs: 0x22f08
SPOKE_WITH_THE_SERGEANT_AT_ARMS_branch_1:
   283fa:	a1 08 2f 02 00       	mov    eax,ds:@obj3:GLOBAL_variable_28                              ; fixup: num: 6526, src obj: 1, src ofs: 0x283fb, dst obj: 3, dst ofs: 0x22f08
   283ff:	c3                   	ret    

;-------------------------------------------------
;  Function 'NEED_DADS_SIGNATURE'                -
;-------------------------------------------------
NEED_DADS_SIGNATURE:
   28400:	85 c0                	test   eax,eax
   28402:	75 06                	jne    NEED_DADS_SIGNATURE_branch_1
   28404:	89 15 0c 2f 02 00    	mov    DWORD PTR ds:@obj3:GLOBAL_variable_29,edx                    ; fixup: num: 6525, src obj: 1, src ofs: 0x28406, dst obj: 3, dst ofs: 0x22f0c
NEED_DADS_SIGNATURE_branch_1:
   2840a:	a1 0c 2f 02 00       	mov    eax,ds:@obj3:GLOBAL_variable_29                              ; fixup: num: 6524, src obj: 1, src ofs: 0x2840b, dst obj: 3, dst ofs: 0x22f0c
   2840f:	c3                   	ret    
NEED_DADS_SIGNATURE_branch_2:
   28410:	89 15 10 2f 02 00    	mov    DWORD PTR ds:@obj3:GLOBAL_variable_30,edx                    ; fixup: num: 6523, src obj: 1, src ofs: 0x28412, dst obj: 3, dst ofs: 0x22f10
   28416:	a1 10 2f 02 00       	mov    eax,ds:@obj3:GLOBAL_variable_30                              ; fixup: num: 6522, src obj: 1, src ofs: 0x28417, dst obj: 3, dst ofs: 0x22f10
   2841b:	c3                   	ret    
   2841c:	8d 44 20 00          	lea    eax,[eax+eiz*1+0x0]

;-------------------------------------------------
;  Function                                      -
;  'IF_MOM_ASKED_YOU_TO_VISIT_WASP_WOMAN'        -
;-------------------------------------------------
IF_MOM_ASKED_YOU_TO_VISIT_WASP_WOMAN:
   28420:	85 c0                	test   eax,eax
   28422:	74 ec                	je     NEED_DADS_SIGNATURE_branch_2
   28424:	a1 10 2f 02 00       	mov    eax,ds:@obj3:GLOBAL_variable_30                              ; fixup: num: 6521, src obj: 1, src ofs: 0x28425, dst obj: 3, dst ofs: 0x22f10
   28429:	c3                   	ret    
IF_MOM_ASKED_YOU_TO_VISIT_WASP_WOMAN_branch_1:
   2842a:	89 15 14 2f 02 00    	mov    DWORD PTR ds:@obj3:GLOBAL_variable_31,edx                    ; fixup: num: 6520, src obj: 1, src ofs: 0x2842c, dst obj: 3, dst ofs: 0x22f14
   28430:	a1 14 2f 02 00       	mov    eax,ds:@obj3:GLOBAL_variable_31                              ; fixup: num: 6519, src obj: 1, src ofs: 0x28431, dst obj: 3, dst ofs: 0x22f14
   28435:	c3                   	ret    
   28436:	8d 80 00 00 00 00    	lea    eax,[eax+0x0]
   2843c:	8d 54 22 00          	lea    edx,[edx+eiz*1+0x0]

;-------------------------------------------------
;  Function 'POTTSDAM_CLAIMED_HE_WAS_HOME'       -
;-------------------------------------------------
POTTSDAM_CLAIMED_HE_WAS_HOME:
   28440:	85 c0                	test   eax,eax
   28442:	74 e6                	je     IF_MOM_ASKED_YOU_TO_VISIT_WASP_WOMAN_branch_1
   28444:	a1 14 2f 02 00       	mov    eax,ds:@obj3:GLOBAL_variable_31                              ; fixup: num: 6443, src obj: 1, src ofs: 0x28445, dst obj: 3, dst ofs: 0x22f14
   28449:	c3                   	ret    
POTTSDAM_CLAIMED_HE_WAS_HOME_branch_1:
   2844a:	89 15 18 2f 02 00    	mov    DWORD PTR ds:@obj3:GLOBAL_variable_32,edx                    ; fixup: num: 6442, src obj: 1, src ofs: 0x2844c, dst obj: 3, dst ofs: 0x22f18
   28450:	a1 18 2f 02 00       	mov    eax,ds:@obj3:GLOBAL_variable_32                              ; fixup: num: 6441, src obj: 1, src ofs: 0x28451, dst obj: 3, dst ofs: 0x22f18
   28455:	c3                   	ret    
   28456:	8d 80 00 00 00 00    	lea    eax,[eax+0x0]
   2845c:	8d 54 22 00          	lea    edx,[edx+eiz*1+0x0]

;-------------------------------------------------
;  Function 'MRS_POTTSDAM_CLAIMED_HE_WAS_HOME'   -
;-------------------------------------------------
MRS_POTTSDAM_CLAIMED_HE_WAS_HOME:
   28460:	85 c0                	test   eax,eax
   28462:	74 e6                	je     POTTSDAM_CLAIMED_HE_WAS_HOME_branch_1
   28464:	a1 18 2f 02 00       	mov    eax,ds:@obj3:GLOBAL_variable_32                              ; fixup: num: 6440, src obj: 1, src ofs: 0x28465, dst obj: 3, dst ofs: 0x22f18
   28469:	c3                   	ret    
MRS_POTTSDAM_CLAIMED_HE_WAS_HOME_branch_1:
   2846a:	89 15 1c 2f 02 00    	mov    DWORD PTR ds:@obj3:GLOBAL_variable_33,edx                    ; fixup: num: 6439, src obj: 1, src ofs: 0x2846c, dst obj: 3, dst ofs: 0x22f1c
   28470:	a1 1c 2f 02 00       	mov    eax,ds:@obj3:GLOBAL_variable_33                              ; fixup: num: 6438, src obj: 1, src ofs: 0x28471, dst obj: 3, dst ofs: 0x22f1c
   28475:	c3                   	ret    
   28476:	8d 80 00 00 00 00    	lea    eax,[eax+0x0]
   2847c:	8d 54 22 00          	lea    edx,[edx+eiz*1+0x0]

;-------------------------------------------------
;  Function 'SHERIFF_ALREADY_TOLD_PC_HE_DIDN_T_  -
;  BELIEVE_KARIN'                                -
;-------------------------------------------------
SHERIFF_ALREADY_TOLD_PC_HE_DIDN_T_BELIEVE_KARIN:
   28480:	85 c0                	test   eax,eax
   28482:	74 e6                	je     MRS_POTTSDAM_CLAIMED_HE_WAS_HOME_branch_1
   28484:	a1 1c 2f 02 00       	mov    eax,ds:@obj3:GLOBAL_variable_33                              ; fixup: num: 6437, src obj: 1, src ofs: 0x28485, dst obj: 3, dst ofs: 0x22f1c
   28489:	c3                   	ret    
SHERIFF_ALREADY_TOLD_PC_HE_DIDN_T_BELIEVE_KARIN_branch_1:
   2848a:	89 15 20 2f 02 00    	mov    DWORD PTR ds:@obj3:GLOBAL_variable_34,edx                    ; fixup: num: 6436, src obj: 1, src ofs: 0x2848c, dst obj: 3, dst ofs: 0x22f20
   28490:	a1 20 2f 02 00       	mov    eax,ds:@obj3:GLOBAL_variable_34                              ; fixup: num: 6435, src obj: 1, src ofs: 0x28491, dst obj: 3, dst ofs: 0x22f20
   28495:	c3                   	ret    
   28496:	8d 80 00 00 00 00    	lea    eax,[eax+0x0]
   2849c:	8d 54 22 00          	lea    edx,[edx+eiz*1+0x0]

;-------------------------------------------------
;  Function 'TOLD_POTTSDAM_TO_FIX_THE_HOLE'      -
;-------------------------------------------------
TOLD_POTTSDAM_TO_FIX_THE_HOLE:
   284a0:	85 c0                	test   eax,eax
   284a2:	74 e6                	je     SHERIFF_ALREADY_TOLD_PC_HE_DIDN_T_BELIEVE_KARIN_branch_1
   284a4:	a1 20 2f 02 00       	mov    eax,ds:@obj3:GLOBAL_variable_34                              ; fixup: num: 6434, src obj: 1, src ofs: 0x284a5, dst obj: 3, dst ofs: 0x22f20
   284a9:	c3                   	ret    
TOLD_POTTSDAM_TO_FIX_THE_HOLE_branch_1:
   284aa:	89 15 24 2f 02 00    	mov    DWORD PTR ds:@obj3:GLOBAL_variable_35,edx                    ; fixup: num: 6433, src obj: 1, src ofs: 0x284ac, dst obj: 3, dst ofs: 0x22f24
   284b0:	a1 24 2f 02 00       	mov    eax,ds:@obj3:GLOBAL_variable_35                              ; fixup: num: 6432, src obj: 1, src ofs: 0x284b1, dst obj: 3, dst ofs: 0x22f24
   284b5:	c3                   	ret    
   284b6:	8d 80 00 00 00 00    	lea    eax,[eax+0x0]
   284bc:	8d 54 22 00          	lea    edx,[edx+eiz*1+0x0]

;-------------------------------------------------
;  Function                                      -
;  'ANYONE_ELSE_HAS_SPOKEN_TO_PC_ABOUT_LODGE'    -
;-------------------------------------------------
ANYONE_ELSE_HAS_SPOKEN_TO_PC_ABOUT_LODGE:
   284c0:	85 c0                	test   eax,eax
   284c2:	74 e6                	je     TOLD_POTTSDAM_TO_FIX_THE_HOLE_branch_1
   284c4:	a1 24 2f 02 00       	mov    eax,ds:@obj3:GLOBAL_variable_35                              ; fixup: num: 6431, src obj: 1, src ofs: 0x284c5, dst obj: 3, dst ofs: 0x22f24
   284c9:	c3                   	ret    
ANYONE_ELSE_HAS_SPOKEN_TO_PC_ABOUT_LODGE_branch_1:
   284ca:	89 15 28 2f 02 00    	mov    DWORD PTR ds:@obj3:GLOBAL_variable_36,edx                    ; fixup: num: 6430, src obj: 1, src ofs: 0x284cc, dst obj: 3, dst ofs: 0x22f28
   284d0:	a1 28 2f 02 00       	mov    eax,ds:@obj3:GLOBAL_variable_36                              ; fixup: num: 6429, src obj: 1, src ofs: 0x284d1, dst obj: 3, dst ofs: 0x22f28
   284d5:	c3                   	ret    
   284d6:	8d 80 00 00 00 00    	lea    eax,[eax+0x0]
   284dc:	8d 54 22 00          	lea    edx,[edx+eiz*1+0x0]

;-------------------------------------------------
;  Function                                      -
;  'IF_HAS_BEEN_TASKED_WITH_STEALING_BOLT'       -
;-------------------------------------------------
IF_HAS_BEEN_TASKED_WITH_STEALING_BOLT:
   284e0:	85 c0                	test   eax,eax
   284e2:	74 e6                	je     ANYONE_ELSE_HAS_SPOKEN_TO_PC_ABOUT_LODGE_branch_1
   284e4:	a1 28 2f 02 00       	mov    eax,ds:@obj3:GLOBAL_variable_36                              ; fixup: num: 6428, src obj: 1, src ofs: 0x284e5, dst obj: 3, dst ofs: 0x22f28
   284e9:	c3                   	ret    
IF_HAS_BEEN_TASKED_WITH_STEALING_BOLT_branch_1:
   284ea:	89 15 2c 2f 02 00    	mov    DWORD PTR ds:@obj3:GLOBAL_variable_37,edx                    ; fixup: num: 6540, src obj: 1, src ofs: 0x284ec, dst obj: 3, dst ofs: 0x22f2c
   284f0:	a1 2c 2f 02 00       	mov    eax,ds:@obj3:GLOBAL_variable_37                              ; fixup: num: 6466, src obj: 1, src ofs: 0x284f1, dst obj: 3, dst ofs: 0x22f2c
   284f5:	c3                   	ret    
   284f6:	8d 80 00 00 00 00    	lea    eax,[eax+0x0]
   284fc:	8d 54 22 00          	lea    edx,[edx+eiz*1+0x0]

;-------------------------------------------------
;  Function 'DUCK_COVER_MIDGAME_HAS_PLAYED'      -
;-------------------------------------------------
DUCK_COVER_MIDGAME_HAS_PLAYED:
   28500:	85 c0                	test   eax,eax
   28502:	74 e6                	je     IF_HAS_BEEN_TASKED_WITH_STEALING_BOLT_branch_1
   28504:	a1 2c 2f 02 00       	mov    eax,ds:@obj3:GLOBAL_variable_37                              ; fixup: num: 6465, src obj: 1, src ofs: 0x28505, dst obj: 3, dst ofs: 0x22f2c
   28509:	c3                   	ret    
DUCK_COVER_MIDGAME_HAS_PLAYED_branch_1:
   2850a:	89 15 30 2f 02 00    	mov    DWORD PTR ds:@obj3:GLOBAL_variable_38,edx                    ; fixup: num: 6464, src obj: 1, src ofs: 0x2850c, dst obj: 3, dst ofs: 0x22f30
   28510:	a1 30 2f 02 00       	mov    eax,ds:@obj3:GLOBAL_variable_38                              ; fixup: num: 6463, src obj: 1, src ofs: 0x28511, dst obj: 3, dst ofs: 0x22f30
   28515:	c3                   	ret    
   28516:	8d 80 00 00 00 00    	lea    eax,[eax+0x0]
   2851c:	8d 54 22 00          	lea    edx,[edx+eiz*1+0x0]

;-------------------------------------------------
;  Function 'IF_WENT_UPSTAIRS_AT_WAYWARD_HOTEL'  -
;-------------------------------------------------
IF_WENT_UPSTAIRS_AT_WAYWARD_HOTEL:
   28520:	85 c0                	test   eax,eax
   28522:	74 e6                	je     DUCK_COVER_MIDGAME_HAS_PLAYED_branch_1
   28524:	a1 30 2f 02 00       	mov    eax,ds:@obj3:GLOBAL_variable_38                              ; fixup: num: 6462, src obj: 1, src ofs: 0x28525, dst obj: 3, dst ofs: 0x22f30
   28529:	c3                   	ret    
   2852a:	8d 80 00 00 00 00    	lea    eax,[eax+0x0]

;-------------------------------------------------
;  Function 'global_initialize'                  -
;-------------------------------------------------
global_initialize:
   28530:	52                   	push   edx
   28531:	31 d2                	xor    edx,edx
   28533:	89 15 98 2e 02 00    	mov    DWORD PTR ds:@obj3:GLOBAL,edx                                ; fixup: num: 6461, src obj: 1, src ofs: 0x28535, dst obj: 3, dst ofs: 0x22e98
   28539:	89 15 9c 2e 02 00    	mov    DWORD PTR ds:@obj3:GLOBAL_variable_1,edx                     ; fixup: num: 6460, src obj: 1, src ofs: 0x2853b, dst obj: 3, dst ofs: 0x22e9c
   2853f:	89 15 a0 2e 02 00    	mov    DWORD PTR ds:@obj3:GLOBAL_variable_2,edx                     ; fixup: num: 6459, src obj: 1, src ofs: 0x28541, dst obj: 3, dst ofs: 0x22ea0
   28545:	89 15 a4 2e 02 00    	mov    DWORD PTR ds:@obj3:GLOBAL_variable_3,edx                     ; fixup: num: 6458, src obj: 1, src ofs: 0x28547, dst obj: 3, dst ofs: 0x22ea4
   2854b:	89 15 a8 2e 02 00    	mov    DWORD PTR ds:@obj3:GLOBAL_variable_4,edx                     ; fixup: num: 6457, src obj: 1, src ofs: 0x2854d, dst obj: 3, dst ofs: 0x22ea8
   28551:	89 15 ac 2e 02 00    	mov    DWORD PTR ds:@obj3:GLOBAL_variable_5,edx                     ; fixup: num: 6456, src obj: 1, src ofs: 0x28553, dst obj: 3, dst ofs: 0x22eac
   28557:	89 15 b0 2e 02 00    	mov    DWORD PTR ds:@obj3:GLOBAL_variable_6,edx                     ; fixup: num: 6455, src obj: 1, src ofs: 0x28559, dst obj: 3, dst ofs: 0x22eb0
   2855d:	89 15 b4 2e 02 00    	mov    DWORD PTR ds:@obj3:GLOBAL_variable_7,edx                     ; fixup: num: 6454, src obj: 1, src ofs: 0x2855f, dst obj: 3, dst ofs: 0x22eb4
   28563:	89 15 b8 2e 02 00    	mov    DWORD PTR ds:@obj3:GLOBAL_variable_8,edx                     ; fixup: num: 6453, src obj: 1, src ofs: 0x28565, dst obj: 3, dst ofs: 0x22eb8
   28569:	89 15 bc 2e 02 00    	mov    DWORD PTR ds:@obj3:GLOBAL_variable_9,edx                     ; fixup: num: 6452, src obj: 1, src ofs: 0x2856b, dst obj: 3, dst ofs: 0x22ebc
   2856f:	89 15 c0 2e 02 00    	mov    DWORD PTR ds:@obj3:GLOBAL_variable_10,edx                    ; fixup: num: 6451, src obj: 1, src ofs: 0x28571, dst obj: 3, dst ofs: 0x22ec0
   28575:	89 15 c4 2e 02 00    	mov    DWORD PTR ds:@obj3:GLOBAL_variable_11,edx                    ; fixup: num: 6450, src obj: 1, src ofs: 0x28577, dst obj: 3, dst ofs: 0x22ec4
   2857b:	89 15 c8 2e 02 00    	mov    DWORD PTR ds:@obj3:GLOBAL_variable_12,edx                    ; fixup: num: 6449, src obj: 1, src ofs: 0x2857d, dst obj: 3, dst ofs: 0x22ec8
   28581:	89 15 cc 2e 02 00    	mov    DWORD PTR ds:@obj3:GLOBAL_variable_13,edx                    ; fixup: num: 6448, src obj: 1, src ofs: 0x28583, dst obj: 3, dst ofs: 0x22ecc
   28587:	89 15 d0 2e 02 00    	mov    DWORD PTR ds:@obj3:GLOBAL_variable_14,edx                    ; fixup: num: 6447, src obj: 1, src ofs: 0x28589, dst obj: 3, dst ofs: 0x22ed0
   2858d:	89 15 d4 2e 02 00    	mov    DWORD PTR ds:@obj3:GLOBAL_variable_15,edx                    ; fixup: num: 6446, src obj: 1, src ofs: 0x2858f, dst obj: 3, dst ofs: 0x22ed4
   28593:	89 15 d8 2e 02 00    	mov    DWORD PTR ds:@obj3:GLOBAL_variable_16,edx                    ; fixup: num: 6445, src obj: 1, src ofs: 0x28595, dst obj: 3, dst ofs: 0x22ed8
   28599:	89 15 dc 2e 02 00    	mov    DWORD PTR ds:@obj3:GLOBAL_variable_17,edx                    ; fixup: num: 6444, src obj: 1, src ofs: 0x2859b, dst obj: 3, dst ofs: 0x22edc
   2859f:	89 15 e0 2e 02 00    	mov    DWORD PTR ds:@obj3:GLOBAL_variable_18,edx                    ; fixup: num: 6364, src obj: 1, src ofs: 0x285a1, dst obj: 3, dst ofs: 0x22ee0
   285a5:	89 15 e4 2e 02 00    	mov    DWORD PTR ds:@obj3:GLOBAL_variable_19,edx                    ; fixup: num: 6363, src obj: 1, src ofs: 0x285a7, dst obj: 3, dst ofs: 0x22ee4
   285ab:	89 15 e8 2e 02 00    	mov    DWORD PTR ds:@obj3:GLOBAL_variable_20,edx                    ; fixup: num: 6362, src obj: 1, src ofs: 0x285ad, dst obj: 3, dst ofs: 0x22ee8
   285b1:	89 15 ec 2e 02 00    	mov    DWORD PTR ds:@obj3:GLOBAL_variable_21,edx                    ; fixup: num: 6361, src obj: 1, src ofs: 0x285b3, dst obj: 3, dst ofs: 0x22eec
   285b7:	89 15 f0 2e 02 00    	mov    DWORD PTR ds:@obj3:GLOBAL_variable_22,edx                    ; fixup: num: 6360, src obj: 1, src ofs: 0x285b9, dst obj: 3, dst ofs: 0x22ef0
   285bd:	89 15 f4 2e 02 00    	mov    DWORD PTR ds:@obj3:GLOBAL_variable_23,edx                    ; fixup: num: 6359, src obj: 1, src ofs: 0x285bf, dst obj: 3, dst ofs: 0x22ef4
   285c3:	89 15 f8 2e 02 00    	mov    DWORD PTR ds:@obj3:GLOBAL_variable_24,edx                    ; fixup: num: 6484, src obj: 1, src ofs: 0x285c5, dst obj: 3, dst ofs: 0x22ef8
   285c9:	89 15 fc 2e 02 00    	mov    DWORD PTR ds:@obj3:GLOBAL_variable_25,edx                    ; fixup: num: 6483, src obj: 1, src ofs: 0x285cb, dst obj: 3, dst ofs: 0x22efc
   285cf:	89 15 00 2f 02 00    	mov    DWORD PTR ds:@obj3:GLOBAL_variable_26,edx                    ; fixup: num: 6482, src obj: 1, src ofs: 0x285d1, dst obj: 3, dst ofs: 0x22f00
   285d5:	89 15 04 2f 02 00    	mov    DWORD PTR ds:@obj3:GLOBAL_variable_27,edx                    ; fixup: num: 6481, src obj: 1, src ofs: 0x285d7, dst obj: 3, dst ofs: 0x22f04
   285db:	89 15 08 2f 02 00    	mov    DWORD PTR ds:@obj3:GLOBAL_variable_28,edx                    ; fixup: num: 6480, src obj: 1, src ofs: 0x285dd, dst obj: 3, dst ofs: 0x22f08
   285e1:	89 15 0c 2f 02 00    	mov    DWORD PTR ds:@obj3:GLOBAL_variable_29,edx                    ; fixup: num: 6479, src obj: 1, src ofs: 0x285e3, dst obj: 3, dst ofs: 0x22f0c
   285e7:	89 15 10 2f 02 00    	mov    DWORD PTR ds:@obj3:GLOBAL_variable_30,edx                    ; fixup: num: 6478, src obj: 1, src ofs: 0x285e9, dst obj: 3, dst ofs: 0x22f10
   285ed:	89 15 14 2f 02 00    	mov    DWORD PTR ds:@obj3:GLOBAL_variable_31,edx                    ; fixup: num: 6477, src obj: 1, src ofs: 0x285ef, dst obj: 3, dst ofs: 0x22f14
   285f3:	89 15 18 2f 02 00    	mov    DWORD PTR ds:@obj3:GLOBAL_variable_32,edx                    ; fixup: num: 6476, src obj: 1, src ofs: 0x285f5, dst obj: 3, dst ofs: 0x22f18
   285f9:	89 15 1c 2f 02 00    	mov    DWORD PTR ds:@obj3:GLOBAL_variable_33,edx                    ; fixup: num: 6475, src obj: 1, src ofs: 0x285fb, dst obj: 3, dst ofs: 0x22f1c
   285ff:	89 15 20 2f 02 00    	mov    DWORD PTR ds:@obj3:GLOBAL_variable_34,edx                    ; fixup: num: 6474, src obj: 1, src ofs: 0x28601, dst obj: 3, dst ofs: 0x22f20
   28605:	89 15 24 2f 02 00    	mov    DWORD PTR ds:@obj3:GLOBAL_variable_35,edx                    ; fixup: num: 6473, src obj: 1, src ofs: 0x28607, dst obj: 3, dst ofs: 0x22f24
   2860b:	89 15 28 2f 02 00    	mov    DWORD PTR ds:@obj3:GLOBAL_variable_36,edx                    ; fixup: num: 6472, src obj: 1, src ofs: 0x2860d, dst obj: 3, dst ofs: 0x22f28
   28611:	89 15 2c 2f 02 00    	mov    DWORD PTR ds:@obj3:GLOBAL_variable_37,edx                    ; fixup: num: 6471, src obj: 1, src ofs: 0x28613, dst obj: 3, dst ofs: 0x22f2c
   28617:	89 15 30 2f 02 00    	mov    DWORD PTR ds:@obj3:GLOBAL_variable_38,edx                    ; fixup: num: 6470, src obj: 1, src ofs: 0x28619, dst obj: 3, dst ofs: 0x22f30
   2861d:	5a                   	pop    edx
   2861e:	c3                   	ret    
   2861f:	90                   	nop

;-------------------------------------------------
;  Function 'CU_OF_EPAULET_MISSING_DISTINCTIVE_  -
;  POSTAL_BUTTON'                                -
;-------------------------------------------------
CU_OF_EPAULET_MISSING_DISTINCTIVE_POSTAL_BUTTON:
   28620:	52                   	push   edx
   28621:	b8 50 75 00 00       	mov    eax,@obj3:global_cpp_variable_1                              ; fixup: num: 6469, src obj: 1, src ofs: 0x28622, dst obj: 3, dst ofs: 0x7550
   28626:	31 d2                	xor    edx,edx
   28628:	e8 23 9f 03 00       	call   play_fvi
   2862d:	5a                   	pop    edx
   2862e:	c3                   	ret    
   2862f:	90                   	nop

;-------------------------------------------------
;  Function                                      -
;  'SPARKY_THROWING_SPOTS_A_CUT_OF_MEAT'         -
;-------------------------------------------------
SPARKY_THROWING_SPOTS_A_CUT_OF_MEAT:
   28630:	52                   	push   edx
   28631:	b8 66 75 00 00       	mov    eax,@obj3:global_cpp_variable_2                              ; fixup: num: 6468, src obj: 1, src ofs: 0x28632, dst obj: 3, dst ofs: 0x7566
   28636:	31 d2                	xor    edx,edx
   28638:	e8 13 9f 03 00       	call   play_fvi
   2863d:	5a                   	pop    edx
   2863e:	c3                   	ret    
   2863f:	90                   	nop

;-------------------------------------------------
;  Function 'SPOT_EATS_MEAT'                     -
;-------------------------------------------------
SPOT_EATS_MEAT:
   28640:	52                   	push   edx
   28641:	b8 7b 75 00 00       	mov    eax,@obj3:global_cpp_variable_3                              ; fixup: num: 6467, src obj: 1, src ofs: 0x28642, dst obj: 3, dst ofs: 0x757b
   28646:	31 d2                	xor    edx,edx
   28648:	e8 03 9f 03 00       	call   play_fvi
   2864d:	5a                   	pop    edx
   2864e:	c3                   	ret    
   2864f:	90                   	nop

;-------------------------------------------------
;  Function 'SPARKY_S_SKETCH_OF_MAN_S_RUMP'      -
;-------------------------------------------------
SPARKY_S_SKETCH_OF_MAN_S_RUMP:
   28650:	52                   	push   edx
   28651:	b8 90 75 00 00       	mov    eax,@obj3:global_cpp_variable_4                              ; fixup: num: 6378, src obj: 1, src ofs: 0x28652, dst obj: 3, dst ofs: 0x7590
   28656:	31 d2                	xor    edx,edx
   28658:	e8 f3 9e 03 00       	call   play_fvi
   2865d:	5a                   	pop    edx
   2865e:	c3                   	ret    
   2865f:	90                   	nop

;-------------------------------------------------
;  Function 'SPARKY_S_SKETCH_OF_MAN_S_RUMP_2'    -
;-------------------------------------------------
SPARKY_S_SKETCH_OF_MAN_S_RUMP_2:
   28660:	52                   	push   edx
   28661:	b8 a5 75 00 00       	mov    eax,@obj3:global_cpp_variable_5                              ; fixup: num: 6377, src obj: 1, src ofs: 0x28662, dst obj: 3, dst ofs: 0x75a5
   28666:	31 d2                	xor    edx,edx
   28668:	e8 e3 9e 03 00       	call   play_fvi
   2866d:	5a                   	pop    edx
   2866e:	c3                   	ret    
   2866f:	90                   	nop

;-------------------------------------------------
;  Function 'NUDE_MAN___'                        -
;-------------------------------------------------
NUDE_MAN___:
   28670:	52                   	push   edx
   28671:	b8 bb 75 00 00       	mov    eax,@obj3:global_cpp_variable_6                              ; fixup: num: 6376, src obj: 1, src ofs: 0x28672, dst obj: 3, dst ofs: 0x75bb
   28676:	31 d2                	xor    edx,edx
   28678:	e8 d3 9e 03 00       	call   play_fvi
   2867d:	5a                   	pop    edx
   2867e:	c3                   	ret    
   2867f:	90                   	nop

;-------------------------------------------------
;  Function 'CU_OF_SPOTS_TONGUE_AS_HE_PANTS'     -
;-------------------------------------------------
CU_OF_SPOTS_TONGUE_AS_HE_PANTS:
   28680:	52                   	push   edx
   28681:	b8 d4 75 00 00       	mov    eax,@obj3:global_cpp_variable_7                              ; fixup: num: 6375, src obj: 1, src ofs: 0x28682, dst obj: 3, dst ofs: 0x75d4
   28686:	31 d2                	xor    edx,edx
   28688:	e8 c3 9e 03 00       	call   play_fvi
   2868d:	5a                   	pop    edx
   2868e:	c3                   	ret    
   2868f:	90                   	nop

;-------------------------------------------------
;  Function 'SPOTS_LICK'                         -
;-------------------------------------------------
SPOTS_LICK:
   28690:	52                   	push   edx
   28691:	b8 e9 75 00 00       	mov    eax,@obj3:global_cpp_variable_8                              ; fixup: num: 6374, src obj: 1, src ofs: 0x28692, dst obj: 3, dst ofs: 0x75e9
   28696:	31 d2                	xor    edx,edx
   28698:	e8 b3 9e 03 00       	call   play_fvi
SPOTS_LICK_branch_1:
   2869d:	5a                   	pop    edx
   2869e:	c3                   	ret    
   2869f:	90                   	nop
SPOTS_LICK_reference_1:                                                                             ; access size: DWORDS
   286a0:	be 86 02 00 cc       	mov    esi,0xcc000286                                               ; fixup: num: 6373, src obj: 1, src ofs: 0x286a0, dst obj: 1, dst ofs: 0x286be; fixup: num: 6372, src obj: 1, src ofs: 0x286a4, dst obj: 1, dst ofs: 0x286cc
   286a5:	86 02                	xchg   BYTE PTR [edx],al
   286a7:	00 da                	add    dl,bl                                                        ; fixup: num: 6371, src obj: 1, src ofs: 0x286a8, dst obj: 1, dst ofs: 0x286da
   286a9:	86 02                	xchg   BYTE PTR [edx],al
   286ab:	00 e8                	add    al,ch                                                        ; fixup: num: 6370, src obj: 1, src ofs: 0x286ac, dst obj: 1, dst ofs: 0x286e8
   286ad:	86 02                	xchg   BYTE PTR [edx],al
   286af:	00               	add    BYTE PTR [edx-0x7d],dl

;-------------------------------------------------
;  Function 'CUE_CARD_MAN'                       -
;-------------------------------------------------
CUE_CARD_MAN:
   286b0:	52                   	push   edx
   286b1:	83 f8 03             	cmp    eax,0x3
   286b4:	77 e7                	ja     SPOTS_LICK_branch_1
   286b6:	2e ff 24 85 a0 86 02 00 	jmp    DWORD PTR cs:[eax*4+@obj1:SPOTS_LICK_reference_1]         ; fixup: num: 6369, src obj: 1, src ofs: 0x286ba, dst obj: 1, dst ofs: 0x286a0
CUE_CARD_MAN_reference_1:
   286be:	b8 fe 75 00 00       	mov    eax,@obj3:global_cpp_variable_9                              ; fixup: num: 6368, src obj: 1, src ofs: 0x286bf, dst obj: 3, dst ofs: 0x75fe
   286c3:	31 d2                	xor    edx,edx
   286c5:	e8 86 9e 03 00       	call   play_fvi
   286ca:	5a                   	pop    edx
   286cb:	c3                   	ret    
CUE_CARD_MAN_reference_2:
   286cc:	b8 14 76 00 00       	mov    eax,@obj3:global_cpp_variable_10                             ; fixup: num: 6367, src obj: 1, src ofs: 0x286cd, dst obj: 3, dst ofs: 0x7614
   286d1:	31 d2                	xor    edx,edx
   286d3:	e8 78 9e 03 00       	call   play_fvi
   286d8:	5a                   	pop    edx
   286d9:	c3                   	ret    
CUE_CARD_MAN_reference_3:
   286da:	b8 2a 76 00 00       	mov    eax,@obj3:global_cpp_variable_11                             ; fixup: num: 6366, src obj: 1, src ofs: 0x286db, dst obj: 3, dst ofs: 0x762a
   286df:	31 d2                	xor    edx,edx
   286e1:	e8 6a 9e 03 00       	call   play_fvi
   286e6:	5a                   	pop    edx
   286e7:	c3                   	ret    
CUE_CARD_MAN_reference_4:
   286e8:	b8 40 76 00 00       	mov    eax,@obj3:global_cpp_variable_12                             ; fixup: num: 6365, src obj: 1, src ofs: 0x286e9, dst obj: 3, dst ofs: 0x7640
   286ed:	31 d2                	xor    edx,edx
   286ef:	e8 5c 9e 03 00       	call   play_fvi
   286f4:	5a                   	pop    edx
   286f5:	c3                   	ret    
   286f6:	8d 80 00 00 00 00    	lea    eax,[eax+0x0]
   286fc:	8d 54 22 00          	lea    edx,[edx+eiz*1+0x0]

;-------------------------------------------------
;  Function 'MEDIUM_SHOT_RANGE_RYDER_LIFTING_HI  -
;  S_BOOT_IMPALED'                               -
;-------------------------------------------------
MEDIUM_SHOT_RANGE_RYDER_LIFTING_HIS_BOOT_IMPALED:
   28700:	52                   	push   edx
   28701:	b8 56 76 00 00       	mov    eax,@obj3:global_cpp_variable_13                             ; fixup: num: 6389, src obj: 1, src ofs: 0x28702, dst obj: 3, dst ofs: 0x7656
   28706:	31 d2                	xor    edx,edx
   28708:	e8 43 9e 03 00       	call   play_fvi
   2870d:	5a                   	pop    edx
   2870e:	c3                   	ret    
   2870f:	90                   	nop

;-------------------------------------------------
;  Function 'PAN_OF_TELEVISION'                  -
;-------------------------------------------------
PAN_OF_TELEVISION:
   28710:	52                   	push   edx
   28711:	b8 6b 76 00 00       	mov    eax,@obj3:global_cpp_variable_14                             ; fixup: num: 6388, src obj: 1, src ofs: 0x28712, dst obj: 3, dst ofs: 0x766b
   28716:	31 d2                	xor    edx,edx
   28718:	e8 33 9e 03 00       	call   play_fvi
   2871d:	5a                   	pop    edx
   2871e:	c3                   	ret    
   2871f:	90                   	nop

;-------------------------------------------------
;  Function 'ELDERLY_COUPLE_HUDDLED_TOGETHER'    -
;-------------------------------------------------
ELDERLY_COUPLE_HUDDLED_TOGETHER:
   28720:	52                   	push   edx
   28721:	b8 80 76 00 00       	mov    eax,@obj3:global_cpp_variable_15                             ; fixup: num: 6387, src obj: 1, src ofs: 0x28722, dst obj: 3, dst ofs: 0x7680
   28726:	31 d2                	xor    edx,edx
   28728:	e8 23 9e 03 00       	call   play_fvi
   2872d:	5a                   	pop    edx
   2872e:	c3                   	ret    
   2872f:	90                   	nop

;-------------------------------------------------
;  Function 'CU_OF_BARBER_S_POLE'                -
;-------------------------------------------------
CU_OF_BARBER_S_POLE:
   28730:	52                   	push   edx
   28731:	b8 95 76 00 00       	mov    eax,@obj3:global_cpp_variable_16                             ; fixup: num: 6386, src obj: 1, src ofs: 0x28732, dst obj: 3, dst ofs: 0x7695
   28736:	31 d2                	xor    edx,edx
   28738:	e8 13 9e 03 00       	call   play_fvi
   2873d:	5a                   	pop    edx
   2873e:	c3                   	ret    
   2873f:	90                   	nop

;-------------------------------------------------
;  Function 'ALIEN_HEAD_MOUNTED_ON_THE_WALL'     -
;-------------------------------------------------
ALIEN_HEAD_MOUNTED_ON_THE_WALL:
   28740:	52                   	push   edx
   28741:	b8 aa 76 00 00       	mov    eax,@obj3:global_cpp_variable_17                             ; fixup: num: 6385, src obj: 1, src ofs: 0x28742, dst obj: 3, dst ofs: 0x76aa
   28746:	31 d2                	xor    edx,edx
   28748:	e8 03 9e 03 00       	call   play_fvi
   2874d:	5a                   	pop    edx
   2874e:	c3                   	ret    
   2874f:	90                   	nop

;-------------------------------------------------
;  Function '_LOOMIS'                            -
;-------------------------------------------------
_LOOMIS:
   28750:	52                   	push   edx
   28751:	b8 bf 76 00 00       	mov    eax,@obj3:global_cpp_variable_18                             ; fixup: num: 6384, src obj: 1, src ofs: 0x28752, dst obj: 3, dst ofs: 0x76bf
   28756:	31 d2                	xor    edx,edx
   28758:	e8 f3 9d 03 00       	call   play_fvi
   2875d:	5a                   	pop    edx
   2875e:	c3                   	ret    
   2875f:	90                   	nop

;-------------------------------------------------
;  Function 'SHERIFF_BEATS_UP_LOOMIS'            -
;-------------------------------------------------
SHERIFF_BEATS_UP_LOOMIS:
   28760:	52                   	push   edx
   28761:	b8 d4 76 00 00       	mov    eax,@obj3:global_cpp_variable_19                             ; fixup: num: 6383, src obj: 1, src ofs: 0x28762, dst obj: 3, dst ofs: 0x76d4
   28766:	31 d2                	xor    edx,edx
   28768:	e8 e3 9d 03 00       	call   play_fvi
   2876d:	5a                   	pop    edx
   2876e:	c3                   	ret    
   2876f:	90                   	nop

;-------------------------------------------------
;  Function 'BLOODY_DUNCE_CAP_ON_STOOL'          -
;-------------------------------------------------
BLOODY_DUNCE_CAP_ON_STOOL:
   28770:	52                   	push   edx
   28771:	b8 e9 76 00 00       	mov    eax,@obj3:global_cpp_variable_20                             ; fixup: num: 6382, src obj: 1, src ofs: 0x28772, dst obj: 3, dst ofs: 0x76e9
   28776:	31 d2                	xor    edx,edx
   28778:	e8 d3 9d 03 00       	call   play_fvi
   2877d:	5a                   	pop    edx
   2877e:	c3                   	ret    
   2877f:	90                   	nop

;-------------------------------------------------
;  Function 'DUCK_AND_COVER_MIDGAME'             -
;-------------------------------------------------
DUCK_AND_COVER_MIDGAME:
   28780:	52                   	push   edx
   28781:	b8 fe 76 00 00       	mov    eax,@obj3:global_cpp_variable_21                             ; fixup: num: 6381, src obj: 1, src ofs: 0x28782, dst obj: 3, dst ofs: 0x76fe
   28786:	31 d2                	xor    edx,edx
   28788:	e8 c3 9d 03 00       	call   play_fvi
   2878d:	c7 05 2c 2f 02 00 01 00 00 00 	mov    DWORD PTR ds:@obj3:GLOBAL_variable_37,0x1           ; fixup: num: 6380, src obj: 1, src ofs: 0x2878f, dst obj: 3, dst ofs: 0x22f2c
   28797:	5a                   	pop    edx
   28798:	c3                   	ret    
   28799:	8d 80 00 00 00 00    	lea    eax,[eax+0x0]
   2879f:	90                   	nop

;-------------------------------------------------
;  Function 'WHALEY_HERRILL_SCREWING'            -
;-------------------------------------------------
WHALEY_HERRILL_SCREWING:
   287a0:	52                   	push   edx
   287a1:	b8 13 77 00 00       	mov    eax,@obj3:global_cpp_variable_22                             ; fixup: num: 6379, src obj: 1, src ofs: 0x287a2, dst obj: 3, dst ofs: 0x7713
   287a6:	31 d2                	xor    edx,edx
   287a8:	e8 a3 9d 03 00       	call   play_fvi
   287ad:	5a                   	pop    edx
   287ae:	c3                   	ret    
   287af:	90                   	nop

;-------------------------------------------------
;  Function 'BASEBALL_BAT_LEANING_IN_CORNER'     -
;-------------------------------------------------
BASEBALL_BAT_LEANING_IN_CORNER:
   287b0:	52                   	push   edx
   287b1:	b8 28 77 00 00       	mov    eax,@obj3:global_cpp_variable_23                             ; fixup: num: 6399, src obj: 1, src ofs: 0x287b2, dst obj: 3, dst ofs: 0x7728
   287b6:	31 d2                	xor    edx,edx
   287b8:	e8 93 9d 03 00       	call   play_fvi
   287bd:	5a                   	pop    edx
   287be:	c3                   	ret    
   287bf:	90                   	nop

;-------------------------------------------------
;  Function 'CU_OF_THE_PROSTITUTE_S_THIGHS_WITH  -
;  _WEIRD_SORES'                                 -
;-------------------------------------------------
CU_OF_THE_PROSTITUTE_S_THIGHS_WITH_WEIRD_SORES:
   287c0:	52                   	push   edx
   287c1:	b8 3d 77 00 00       	mov    eax,@obj3:global_cpp_variable_24                             ; fixup: num: 6398, src obj: 1, src ofs: 0x287c2, dst obj: 3, dst ofs: 0x773d
   287c6:	31 d2                	xor    edx,edx
   287c8:	e8 83 9d 03 00       	call   play_fvi
   287cd:	5a                   	pop    edx
   287ce:	c3                   	ret    
   287cf:	90                   	nop

;-------------------------------------------------
;  Function 'NUCLEAR_BUTTON_CLOSEUP'             -
;-------------------------------------------------
NUCLEAR_BUTTON_CLOSEUP:
   287d0:	52                   	push   edx
   287d1:	b8 52 77 00 00       	mov    eax,@obj3:global_cpp_variable_25                             ; fixup: num: 6397, src obj: 1, src ofs: 0x287d2, dst obj: 3, dst ofs: 0x7752
   287d6:	31 d2                	xor    edx,edx
   287d8:	e8 73 9d 03 00       	call   play_fvi
   287dd:	5a                   	pop    edx
   287de:	c3                   	ret    
   287df:	90                   	nop

;-------------------------------------------------
;  Function 'HOLOCAUST_MIDGAME'                  -
;-------------------------------------------------
HOLOCAUST_MIDGAME:
   287e0:	52                   	push   edx
   287e1:	e8 0a ad 03 00       	call   NoLighting
   287e6:	b8 67 77 00 00       	mov    eax,@obj3:global_cpp_variable_26                             ; fixup: num: 6396, src obj: 1, src ofs: 0x287e7, dst obj: 3, dst ofs: 0x7767
   287eb:	31 d2                	xor    edx,edx
   287ed:	e8 5e 9d 03 00       	call   play_fvi
   287f2:	5a                   	pop    edx
   287f3:	c3                   	ret    
   287f4:	8d 80 00 00 00 00    	lea    eax,[eax+0x0]
   287fa:	8d 92 00 00 00 00    	lea    edx,[edx+0x0]

;-------------------------------------------------
;  Function 'CRUDE_STICK_DRAWING_OF_MAN_WITH_A_  -
;  LONG_SCHLONG'                                 -
;-------------------------------------------------
CRUDE_STICK_DRAWING_OF_MAN_WITH_A_LONG_SCHLONG:
   28800:	52                   	push   edx
   28801:	b8 7c 77 00 00       	mov    eax,@obj3:global_cpp_variable_27                             ; fixup: num: 6395, src obj: 1, src ofs: 0x28802, dst obj: 3, dst ofs: 0x777c
   28806:	31 d2                	xor    edx,edx
   28808:	e8 43 9d 03 00       	call   play_fvi
   2880d:	5a                   	pop    edx
   2880e:	c3                   	ret    
   2880f:	90                   	nop

;-------------------------------------------------
;  Function                                      -
;  'MAN_SCREAMING_IN_PAIN_WHILE_BEING_TORTURED'  -
;-------------------------------------------------
MAN_SCREAMING_IN_PAIN_WHILE_BEING_TORTURED:
   28810:	52                   	push   edx
   28811:	b8 91 77 00 00       	mov    eax,@obj3:global_cpp_variable_28                             ; fixup: num: 6394, src obj: 1, src ofs: 0x28812, dst obj: 3, dst ofs: 0x7791
   28816:	31 d2                	xor    edx,edx
   28818:	e8 33 9d 03 00       	call   play_fvi
   2881d:	5a                   	pop    edx
   2881e:	c3                   	ret    
   2881f:	90                   	nop

;-------------------------------------------------
;  Function 'BUTCHER_CUTAWAY_GUTS_1'             -
;-------------------------------------------------
BUTCHER_CUTAWAY_GUTS_1:
   28820:	52                   	push   edx
   28821:	b8 a8 77 00 00       	mov    eax,@obj3:global_cpp_variable_29                             ; fixup: num: 6393, src obj: 1, src ofs: 0x28822, dst obj: 3, dst ofs: 0x77a8
   28826:	31 d2                	xor    edx,edx
   28828:	e8 23 9d 03 00       	call   play_fvi
   2882d:	5a                   	pop    edx
   2882e:	c3                   	ret    
   2882f:	90                   	nop

;-------------------------------------------------
;  Function 'BUTCHER_CUTAWAY_GUTS_2'             -
;-------------------------------------------------
BUTCHER_CUTAWAY_GUTS_2:
   28830:	52                   	push   edx
   28831:	b8 bd 77 00 00       	mov    eax,@obj3:global_cpp_variable_30                             ; fixup: num: 6392, src obj: 1, src ofs: 0x28832, dst obj: 3, dst ofs: 0x77bd
   28836:	31 d2                	xor    edx,edx
   28838:	e8 13 9d 03 00       	call   play_fvi
   2883d:	5a                   	pop    edx
   2883e:	c3                   	ret    
   2883f:	90                   	nop

;-------------------------------------------------
;  Function 'BUTCHER_CUTAWAY_GUTS_3'             -
;-------------------------------------------------
BUTCHER_CUTAWAY_GUTS_3:
   28840:	52                   	push   edx
   28841:	b8 d3 77 00 00       	mov    eax,@obj3:global_cpp_variable_31                             ; fixup: num: 6391, src obj: 1, src ofs: 0x28842, dst obj: 3, dst ofs: 0x77d3
   28846:	31 d2                	xor    edx,edx
   28848:	e8 03 9d 03 00       	call   play_fvi
   2884d:	5a                   	pop    edx
   2884e:	c3                   	ret    
   2884f:	90                   	nop

;-------------------------------------------------
;  Function 'BUTCHER_CUTAWAY_GUTS_4'             -
;-------------------------------------------------
BUTCHER_CUTAWAY_GUTS_4:
   28850:	52                   	push   edx
   28851:	b8 e9 77 00 00       	mov    eax,@obj3:global_cpp_variable_32                             ; fixup: num: 6390, src obj: 1, src ofs: 0x28852, dst obj: 3, dst ofs: 0x77e9
   28856:	31 d2                	xor    edx,edx
   28858:	e8 f3 9c 03 00       	call   play_fvi
   2885d:	5a                   	pop    edx
   2885e:	c3                   	ret    
   2885f:	90                   	nop

;-------------------------------------------------
;  Function 'BUTCHER_FLY_BOWL_1'                 -
;-------------------------------------------------
BUTCHER_FLY_BOWL_1:
   28860:	52                   	push   edx
   28861:	b8 ff 77 00 00       	mov    eax,@obj3:global_cpp_variable_33                             ; fixup: num: 6410, src obj: 1, src ofs: 0x28862, dst obj: 3, dst ofs: 0x77ff
   28866:	31 d2                	xor    edx,edx
   28868:	e8 e3 9c 03 00       	call   play_fvi
   2886d:	5a                   	pop    edx
   2886e:	c3                   	ret    
   2886f:	90                   	nop

;-------------------------------------------------
;  Function 'BUTCHER_FLY_BOWL_2'                 -
;-------------------------------------------------
BUTCHER_FLY_BOWL_2:
   28870:	52                   	push   edx
   28871:	b8 14 78 00 00       	mov    eax,@obj3:global_cpp_variable_34                             ; fixup: num: 6409, src obj: 1, src ofs: 0x28872, dst obj: 3, dst ofs: 0x7814
   28876:	31 d2                	xor    edx,edx
   28878:	e8 d3 9c 03 00       	call   play_fvi
   2887d:	5a                   	pop    edx
   2887e:	c3                   	ret    
   2887f:	90                   	nop

;-------------------------------------------------
;  Function 'BUTCHER_CATS_SKINNED_1'             -
;-------------------------------------------------
BUTCHER_CATS_SKINNED_1:
   28880:	52                   	push   edx
   28881:	b8 2a 78 00 00       	mov    eax,@obj3:global_cpp_variable_35                             ; fixup: num: 6408, src obj: 1, src ofs: 0x28882, dst obj: 3, dst ofs: 0x782a
   28886:	31 d2                	xor    edx,edx
   28888:	e8 c3 9c 03 00       	call   play_fvi
   2888d:	5a                   	pop    edx
   2888e:	c3                   	ret    
   2888f:	90                   	nop

;-------------------------------------------------
;  Function 'BUTCHER_CATS_SKINNED_2'             -
;-------------------------------------------------
BUTCHER_CATS_SKINNED_2:
   28890:	52                   	push   edx
   28891:	b8 3f 78 00 00       	mov    eax,@obj3:global_cpp_variable_36                             ; fixup: num: 6407, src obj: 1, src ofs: 0x28892, dst obj: 3, dst ofs: 0x783f
   28896:	31 d2                	xor    edx,edx
   28898:	e8 b3 9c 03 00       	call   play_fvi
   2889d:	5a                   	pop    edx
   2889e:	c3                   	ret    
   2889f:	90                   	nop

;-------------------------------------------------
;  Function 'BUTCHER_CATS_SKINNED_3'             -
;-------------------------------------------------
BUTCHER_CATS_SKINNED_3:
   288a0:	52                   	push   edx
   288a1:	b8 55 78 00 00       	mov    eax,@obj3:global_cpp_variable_37                             ; fixup: num: 6406, src obj: 1, src ofs: 0x288a2, dst obj: 3, dst ofs: 0x7855
   288a6:	31 d2                	xor    edx,edx
   288a8:	e8 a3 9c 03 00       	call   play_fvi
   288ad:	5a                   	pop    edx
   288ae:	c3                   	ret    
   288af:	90                   	nop

;-------------------------------------------------
;  Function                                      -
;  'CAT_S_BOWL_WITH_FLY_WALKING_ALONG_RIM'       -
;-------------------------------------------------
CAT_S_BOWL_WITH_FLY_WALKING_ALONG_RIM:
   288b0:	52                   	push   edx
   288b1:	b8 6b 78 00 00       	mov    eax,@obj3:global_cpp_variable_38                             ; fixup: num: 6405, src obj: 1, src ofs: 0x288b2, dst obj: 3, dst ofs: 0x786b
   288b6:	31 d2                	xor    edx,edx
   288b8:	e8 93 9c 03 00       	call   play_fvi
   288bd:	5a                   	pop    edx
   288be:	c3                   	ret    
   288bf:	90                   	nop

;-------------------------------------------------
;  Function 'LITTLE_CARCASSES_WITH_TAILS_HANGIN  -
;  G_ON_HOOKS'                                   -
;-------------------------------------------------
LITTLE_CARCASSES_WITH_TAILS_HANGING_ON_HOOKS:
   288c0:	52                   	push   edx
   288c1:	b8 80 78 00 00       	mov    eax,@obj3:global_cpp_variable_39                             ; fixup: num: 6404, src obj: 1, src ofs: 0x288c2, dst obj: 3, dst ofs: 0x7880
   288c6:	31 d2                	xor    edx,edx
   288c8:	e8 83 9c 03 00       	call   play_fvi
   288cd:	5a                   	pop    edx
   288ce:	c3                   	ret    
   288cf:	90                   	nop

;-------------------------------------------------
;  Function 'BABY_IN_CRIB_SLEEPING'              -
;-------------------------------------------------
BABY_IN_CRIB_SLEEPING:
   288d0:	52                   	push   edx
   288d1:	b8 95 78 00 00       	mov    eax,@obj3:global_cpp_variable_40                             ; fixup: num: 6403, src obj: 1, src ofs: 0x288d2, dst obj: 3, dst ofs: 0x7895
   288d6:	31 d2                	xor    edx,edx
   288d8:	e8 73 9c 03 00       	call   play_fvi
   288dd:	5a                   	pop    edx
   288de:	c3                   	ret    
   288df:	90                   	nop

;-------------------------------------------------
;  Function 'BABY_IN_CRIB_EATING_SPIDER'         -
;-------------------------------------------------
BABY_IN_CRIB_EATING_SPIDER:
   288e0:	52                   	push   edx
   288e1:	b8 ab 78 00 00       	mov    eax,@obj3:global_cpp_variable_41                             ; fixup: num: 6402, src obj: 1, src ofs: 0x288e2, dst obj: 3, dst ofs: 0x78ab
   288e6:	31 d2                	xor    edx,edx
   288e8:	e8 63 9c 03 00       	call   play_fvi
   288ed:	5a                   	pop    edx
   288ee:	c3                   	ret    
   288ef:	90                   	nop

;-------------------------------------------------
;  Function 'MOM_S_REFLECTION_IN_THE_TOASTER'    -
;-------------------------------------------------
MOM_S_REFLECTION_IN_THE_TOASTER:
   288f0:	52                   	push   edx
   288f1:	b8 c1 78 00 00       	mov    eax,@obj3:global_cpp_variable_42                             ; fixup: num: 6401, src obj: 1, src ofs: 0x288f2, dst obj: 3, dst ofs: 0x78c1
   288f6:	31 d2                	xor    edx,edx
   288f8:	e8 53 9c 03 00       	call   play_fvi
   288fd:	5a                   	pop    edx
   288fe:	c3                   	ret    
   288ff:	90                   	nop

;-------------------------------------------------
;  Function 'BABY_IN_CRIB_PART_II'               -
;-------------------------------------------------
BABY_IN_CRIB_PART_II:
   28900:	52                   	push   edx
   28901:	b8 d6 78 00 00       	mov    eax,@obj3:global_cpp_variable_43                             ; fixup: num: 6400, src obj: 1, src ofs: 0x28902, dst obj: 3, dst ofs: 0x78d6
   28906:	31 d2                	xor    edx,edx
   28908:	e8 43 9c 03 00       	call   play_fvi
   2890d:	5a                   	pop    edx
   2890e:	c3                   	ret    
   2890f:	90                   	nop

;-------------------------------------------------
;  Function                                      -
;  'CU_OF_CHILD_BITING_A_CHUNK_OUT_OF_HER_LEG'   -
;-------------------------------------------------
CU_OF_CHILD_BITING_A_CHUNK_OUT_OF_HER_LEG:
   28910:	52                   	push   edx
   28911:	b8 eb 78 00 00       	mov    eax,@obj3:global_cpp_variable_44                             ; fixup: num: 6422, src obj: 1, src ofs: 0x28912, dst obj: 3, dst ofs: 0x78eb
   28916:	31 d2                	xor    edx,edx
   28918:	e8 33 9c 03 00       	call   play_fvi
   2891d:	5a                   	pop    edx
   2891e:	c3                   	ret    
   2891f:	90                   	nop

;-------------------------------------------------
;  Function                                      -
;  'MRS_POTTSDAM_RAISING_PHONE_RECEIVER_TO_EAR'  -
;-------------------------------------------------
MRS_POTTSDAM_RAISING_PHONE_RECEIVER_TO_EAR:
   28920:	52                   	push   edx
   28921:	b8 00 79 00 00       	mov    eax,@obj3:global_cpp_variable_45                             ; fixup: num: 6421, src obj: 1, src ofs: 0x28922, dst obj: 3, dst ofs: 0x7900
   28926:	31 d2                	xor    edx,edx
   28928:	e8 23 9c 03 00       	call   play_fvi
   2892d:	5a                   	pop    edx
   2892e:	c3                   	ret    
   2892f:	90                   	nop

;-------------------------------------------------
;  Function 'MIDGAME_ONE'                        -
;-------------------------------------------------
MIDGAME_ONE:
   28930:	52                   	push   edx
   28931:	ba 01 00 00 00       	mov    edx,0x1
   28936:	b8 15 79 00 00       	mov    eax,@obj3:global_cpp_variable_46                             ; fixup: num: 6420, src obj: 1, src ofs: 0x28937, dst obj: 3, dst ofs: 0x7915
   2893b:	89 15 b8 2e 02 00    	mov    DWORD PTR ds:@obj3:GLOBAL_variable_8,edx                     ; fixup: num: 6419, src obj: 1, src ofs: 0x2893d, dst obj: 3, dst ofs: 0x22eb8
   28941:	e8 9a 3e 04 00       	call   set_script_flag
   28946:	e8 a5 ab 03 00       	call   NoLighting
   2894b:	b8 2a 79 00 00       	mov    eax,@obj3:global_cpp_variable_47                             ; fixup: num: 6418, src obj: 1, src ofs: 0x2894c, dst obj: 3, dst ofs: 0x792a
   28950:	31 d2                	xor    edx,edx
   28952:	e8 f9 9b 03 00       	call   play_fvi
   28957:	5a                   	pop    edx
   28958:	c3                   	ret    
   28959:	8d 80 00 00 00 00    	lea    eax,[eax+0x0]
   2895f:	90                   	nop

;-------------------------------------------------
;  Function 'PTA_MOMS_TALKING_HAPPILY'           -
;-------------------------------------------------
PTA_MOMS_TALKING_HAPPILY:
   28960:	52                   	push   edx
   28961:	b8 40 79 00 00       	mov    eax,@obj3:global_cpp_variable_48                             ; fixup: num: 6417, src obj: 1, src ofs: 0x28962, dst obj: 3, dst ofs: 0x7940
   28966:	31 d2                	xor    edx,edx
   28968:	e8 e3 9b 03 00       	call   play_fvi
   2896d:	5a                   	pop    edx
   2896e:	c3                   	ret    
   2896f:	90                   	nop

;-------------------------------------------------
;  Function 'PTA_MOMS_TALKING_ANGRY'             -
;-------------------------------------------------
PTA_MOMS_TALKING_ANGRY:
   28970:	52                   	push   edx
   28971:	b8 56 79 00 00       	mov    eax,@obj3:global_cpp_variable_49                             ; fixup: num: 6416, src obj: 1, src ofs: 0x28972, dst obj: 3, dst ofs: 0x7956
   28976:	31 d2                	xor    edx,edx
   28978:	e8 d3 9b 03 00       	call   play_fvi
   2897d:	5a                   	pop    edx
   2897e:	c3                   	ret    
   2897f:	90                   	nop

;-------------------------------------------------
;  Function 'CAMERA_DOLLYS_IN_ON_DAD_S_DOOR_FRO  -
;  M_LOW_ANGLE'                                  -
;-------------------------------------------------
CAMERA_DOLLYS_IN_ON_DAD_S_DOOR_FROM_LOW_ANGLE:
   28980:	52                   	push   edx
   28981:	b8 6c 79 00 00       	mov    eax,@obj3:global_cpp_variable_50                             ; fixup: num: 6415, src obj: 1, src ofs: 0x28982, dst obj: 3, dst ofs: 0x796c
   28986:	31 d2                	xor    edx,edx
   28988:	e8 c3 9b 03 00       	call   play_fvi
   2898d:	5a                   	pop    edx
   2898e:	c3                   	ret    
   2898f:	90                   	nop

;-------------------------------------------------
;  Function 'KARIN_PLAYING_ON_THE_FLOOR'         -
;-------------------------------------------------
KARIN_PLAYING_ON_THE_FLOOR:
   28990:	52                   	push   edx
   28991:	b8 81 79 00 00       	mov    eax,@obj3:global_cpp_variable_51                             ; fixup: num: 6414, src obj: 1, src ofs: 0x28992, dst obj: 3, dst ofs: 0x7981
   28996:	31 d2                	xor    edx,edx
   28998:	e8 b3 9b 03 00       	call   play_fvi
   2899d:	5a                   	pop    edx
   2899e:	c3                   	ret    
   2899f:	90                   	nop

;-------------------------------------------------
;  Function 'LOW_ANGLE_OF_EDNA_KARIN_HANGING_FR  -
;  OM_THE_RAFTER_SWAYING'                        -
;-------------------------------------------------
LOW_ANGLE_OF_EDNA_KARIN_HANGING_FROM_THE_RAFTER_SWAYING:
   289a0:	53                   	push   ebx
   289a1:	52                   	push   edx
   289a2:	b8 96 79 00 00       	mov    eax,@obj3:global_cpp_variable_52                             ; fixup: num: 6413, src obj: 1, src ofs: 0x289a3, dst obj: 3, dst ofs: 0x7996
   289a7:	31 d2                	xor    edx,edx
   289a9:	e8 a2 9b 03 00       	call   play_fvi
   289ae:	ba 01 00 00 00       	mov    edx,0x1
   289b3:	b8 b4 79 00 00       	mov    eax,@obj3:global_cpp_variable_54                             ; fixup: num: 6412, src obj: 1, src ofs: 0x289b4, dst obj: 3, dst ofs: 0x79b4
   289b8:	89 15 a4 2e 02 00    	mov    DWORD PTR ds:@obj3:GLOBAL_variable_3,edx                     ; fixup: num: 6411, src obj: 1, src ofs: 0x289ba, dst obj: 3, dst ofs: 0x22ea4
   289be:	89 d3                	mov    ebx,edx
   289c0:	89 15 a8 2e 02 00    	mov    DWORD PTR ds:@obj3:GLOBAL_variable_4,edx                     ; fixup: num: 6299, src obj: 1, src ofs: 0x289c2, dst obj: 3, dst ofs: 0x22ea8
   289c6:	ba ac 79 00 00       	mov    edx,@obj3:global_cpp_variable_53                             ; fixup: num: 6298, src obj: 1, src ofs: 0x289c7, dst obj: 3, dst ofs: 0x79ac
   289cb:	e8 40 a5 02 00       	call   set_object
   289d0:	5a                   	pop    edx
   289d1:	5b                   	pop    ebx
   289d2:	c3                   	ret    
   289d3:	8d 80 00 00 00 00    	lea    eax,[eax+0x0]
   289d9:	8d 92 00 00 00 00    	lea    edx,[edx+0x0]
   289df:	90                   	nop

;-------------------------------------------------
;  Function 'LOW_ANGLE_OF_EDNA_HANGING_FROM_THE  -
;  _RAFTER_SWAYING'                              -
;-------------------------------------------------
LOW_ANGLE_OF_EDNA_HANGING_FROM_THE_RAFTER_SWAYING:
   289e0:	53                   	push   ebx
   289e1:	52                   	push   edx
   289e2:	b8 bb 79 00 00       	mov    eax,@obj3:global_cpp_variable_55                             ; fixup: num: 6297, src obj: 1, src ofs: 0x289e3, dst obj: 3, dst ofs: 0x79bb
   289e7:	31 d2                	xor    edx,edx
   289e9:	e8 62 9b 03 00       	call   play_fvi
   289ee:	ba 01 00 00 00       	mov    edx,0x1
   289f3:	b8 d8 79 00 00       	mov    eax,@obj3:global_cpp_variable_57                             ; fixup: num: 6296, src obj: 1, src ofs: 0x289f4, dst obj: 3, dst ofs: 0x79d8
   289f8:	89 15 a4 2e 02 00    	mov    DWORD PTR ds:@obj3:GLOBAL_variable_3,edx                     ; fixup: num: 6295, src obj: 1, src ofs: 0x289fa, dst obj: 3, dst ofs: 0x22ea4
   289fe:	89 d3                	mov    ebx,edx
   28a00:	89 15 a8 2e 02 00    	mov    DWORD PTR ds:@obj3:GLOBAL_variable_4,edx                     ; fixup: num: 6294, src obj: 1, src ofs: 0x28a02, dst obj: 3, dst ofs: 0x22ea8
   28a06:	ba d0 79 00 00       	mov    edx,@obj3:global_cpp_variable_56                             ; fixup: num: 6293, src obj: 1, src ofs: 0x28a07, dst obj: 3, dst ofs: 0x79d0
   28a0b:	e8 00 a5 02 00       	call   set_object
   28a10:	5a                   	pop    edx
   28a11:	5b                   	pop    ebx
   28a12:	c3                   	ret    
   28a13:	8d 80 00 00 00 00    	lea    eax,[eax+0x0]
   28a19:	8d 92 00 00 00 00    	lea    edx,[edx+0x0]
   28a1f:	90                   	nop

;-------------------------------------------------
;  Function                                      -
;  'HANDING_PC_BLADED_HARVESTER_WEAPON'          -
;-------------------------------------------------
HANDING_PC_BLADED_HARVESTER_WEAPON:
   28a20:	52                   	push   edx
   28a21:	b8 df 79 00 00       	mov    eax,@obj3:global_cpp_variable_58                             ; fixup: num: 6427, src obj: 1, src ofs: 0x28a22, dst obj: 3, dst ofs: 0x79df
   28a26:	31 d2                	xor    edx,edx
   28a28:	e8 23 9b 03 00       	call   play_fvi
   28a2d:	5a                   	pop    edx
   28a2e:	c3                   	ret    
   28a2f:	90                   	nop

;-------------------------------------------------
;  Function 'SGT_AT_ARMS_EXTENDING_ARM_TO_OPEN_  -
;  LODGE_DOORS'                                  -
;-------------------------------------------------
SGT_AT_ARMS_EXTENDING_ARM_TO_OPEN_LODGE_DOORS:
   28a30:	52                   	push   edx
   28a31:	b8 f4 79 00 00       	mov    eax,@obj3:global_cpp_variable_59                             ; fixup: num: 6426, src obj: 1, src ofs: 0x28a32, dst obj: 3, dst ofs: 0x79f4
   28a36:	31 d2                	xor    edx,edx
   28a38:	e8 13 9b 03 00       	call   play_fvi
   28a3d:	5a                   	pop    edx
   28a3e:	c3                   	ret    
   28a3f:	90                   	nop

;-------------------------------------------------
;  Function 'STEPHANIE_LOOKS_OUT_WINDOW_1'       -
;-------------------------------------------------
STEPHANIE_LOOKS_OUT_WINDOW_1:
   28a40:	52                   	push   edx
   28a41:	b8 09 7a 00 00       	mov    eax,@obj3:global_cpp_variable_60                             ; fixup: num: 6425, src obj: 1, src ofs: 0x28a42, dst obj: 3, dst ofs: 0x7a09
   28a46:	31 d2                	xor    edx,edx
   28a48:	e8 03 9b 03 00       	call   play_fvi
   28a4d:	5a                   	pop    edx
   28a4e:	c3                   	ret    
   28a4f:	90                   	nop

;-------------------------------------------------
;  Function 'STEPHANIE_LOOKS_OUT_WINDOW_2'       -
;-------------------------------------------------
STEPHANIE_LOOKS_OUT_WINDOW_2:
   28a50:	52                   	push   edx
   28a51:	b8 1f 7a 00 00       	mov    eax,@obj3:global_cpp_variable_61                             ; fixup: num: 6424, src obj: 1, src ofs: 0x28a52, dst obj: 3, dst ofs: 0x7a1f
   28a56:	31 d2                	xor    edx,edx
   28a58:	e8 f3 9a 03 00       	call   play_fvi
   28a5d:	5a                   	pop    edx
   28a5e:	c3                   	ret    
   28a5f:	90                   	nop

;-------------------------------------------------
;  Function 'STEPHANIE_REACHES_OUT_1'            -
;-------------------------------------------------
STEPHANIE_REACHES_OUT_1:
   28a60:	52                   	push   edx
   28a61:	b8 35 7a 00 00       	mov    eax,@obj3:global_cpp_variable_62                             ; fixup: num: 6423, src obj: 1, src ofs: 0x28a62, dst obj: 3, dst ofs: 0x7a35
   28a66:	31 d2                	xor    edx,edx
   28a68:	e8 e3 9a 03 00       	call   play_fvi
   28a6d:	5a                   	pop    edx
   28a6e:	c3                   	ret    
   28a6f:	90                   	nop

;-------------------------------------------------
;  Function 'STEPHANIE_DEMANDS_SEX'              -
;-------------------------------------------------
STEPHANIE_DEMANDS_SEX:
   28a70:	52                   	push   edx
   28a71:	b8 4b 7a 00 00       	mov    eax,@obj3:global_cpp_variable_63                             ; fixup: num: 6308, src obj: 1, src ofs: 0x28a72, dst obj: 3, dst ofs: 0x7a4b
   28a76:	31 d2                	xor    edx,edx
   28a78:	e8 d3 9a 03 00       	call   play_fvi
   28a7d:	5a                   	pop    edx
   28a7e:	c3                   	ret    
   28a7f:	90                   	nop

;-------------------------------------------------
;  Function 'MAKING_LOVE_MIDGAME'                -
;-------------------------------------------------
MAKING_LOVE_MIDGAME:
   28a80:	52                   	push   edx
   28a81:	b8 61 7a 00 00       	mov    eax,@obj3:global_cpp_variable_64                             ; fixup: num: 6307, src obj: 1, src ofs: 0x28a82, dst obj: 3, dst ofs: 0x7a61
   28a86:	31 d2                	xor    edx,edx
   28a88:	e8 c3 9a 03 00       	call   play_fvi
   28a8d:	5a                   	pop    edx
   28a8e:	c3                   	ret    
   28a8f:	90                   	nop

;-------------------------------------------------
;  Function 'STEPHANIE_WANTS_TO_GET_BUSY'        -
;-------------------------------------------------
STEPHANIE_WANTS_TO_GET_BUSY:
   28a90:	52                   	push   edx
   28a91:	b8 76 7a 00 00       	mov    eax,@obj3:global_cpp_variable_65                             ; fixup: num: 6306, src obj: 1, src ofs: 0x28a92, dst obj: 3, dst ofs: 0x7a76
   28a96:	31 d2                	xor    edx,edx
   28a98:	e8 b3 9a 03 00       	call   play_fvi
   28a9d:	5a                   	pop    edx
   28a9e:	c3                   	ret    
   28a9f:	90                   	nop

;-------------------------------------------------
;  Function                                      -
;  'WIDE_ANGLE_PC_REACHES_OUT_TO_TAKE_HER_HAND'  -
;-------------------------------------------------
WIDE_ANGLE_PC_REACHES_OUT_TO_TAKE_HER_HAND:
   28aa0:	52                   	push   edx
   28aa1:	31 d2                	xor    edx,edx
   28aa3:	31 c0                	xor    eax,eax
   28aa5:	e8 a6 9a 03 00       	call   play_fvi
   28aaa:	5a                   	pop    edx
   28aab:	c3                   	ret    
   28aac:	8d 44 20 00          	lea    eax,[eax+eiz*1+0x0]

;-------------------------------------------------
;  Function                                      -
;  'CU_PC_S_HAND_TOUCHING_STEPHANIE_S_HAND'      -
;-------------------------------------------------
CU_PC_S_HAND_TOUCHING_STEPHANIE_S_HAND:
   28ab0:	52                   	push   edx
   28ab1:	31 d2                	xor    edx,edx
   28ab3:	31 c0                	xor    eax,eax
   28ab5:	e8 96 9a 03 00       	call   play_fvi
   28aba:	5a                   	pop    edx
   28abb:	c3                   	ret    
   28abc:	8d 44 20 00          	lea    eax,[eax+eiz*1+0x0]

;-------------------------------------------------
;  Function 'DARK_WOMAN_COMPULSIVELY_RIPS_CHUNK  -
;  S_OF_FLESH_FROM'                              -
;-------------------------------------------------
DARK_WOMAN_COMPULSIVELY_RIPS_CHUNKS_OF_FLESH_FROM:
   28ac0:	52                   	push   edx
   28ac1:	b8 8c 7a 00 00       	mov    eax,@obj3:global_cpp_variable_66                             ; fixup: num: 6305, src obj: 1, src ofs: 0x28ac2, dst obj: 3, dst ofs: 0x7a8c
   28ac6:	31 d2                	xor    edx,edx
   28ac8:	e8 83 9a 03 00       	call   play_fvi
   28acd:	5a                   	pop    edx
   28ace:	c3                   	ret    
   28acf:	90                   	nop

;-------------------------------------------------
;  Function 'POTTSDAM_PRODUCING_TWO_MEAT_HOOKS'  -
;-------------------------------------------------
POTTSDAM_PRODUCING_TWO_MEAT_HOOKS:
   28ad0:	52                   	push   edx
   28ad1:	b8 a1 7a 00 00       	mov    eax,@obj3:global_cpp_variable_67                             ; fixup: num: 6304, src obj: 1, src ofs: 0x28ad2, dst obj: 3, dst ofs: 0x7aa1
   28ad6:	31 d2                	xor    edx,edx
   28ad8:	e8 73 9a 03 00       	call   play_fvi
   28add:	5a                   	pop    edx
   28ade:	c3                   	ret    
   28adf:	90                   	nop

;-------------------------------------------------
;  Function 'CHILDREN_LOOK_UP_FROM_HER_PARTIALL  -
;  Y_DEVOURED_BODY'                              -
;-------------------------------------------------
CHILDREN_LOOK_UP_FROM_HER_PARTIALLY_DEVOURED_BODY:
   28ae0:	52                   	push   edx
   28ae1:	b8 b6 7a 00 00       	mov    eax,@obj3:global_cpp_variable_68                             ; fixup: num: 6303, src obj: 1, src ofs: 0x28ae2, dst obj: 3, dst ofs: 0x7ab6
   28ae6:	31 d2                	xor    edx,edx
   28ae8:	e8 63 9a 03 00       	call   play_fvi
   28aed:	5a                   	pop    edx
   28aee:	c3                   	ret    
   28aef:	90                   	nop

;-------------------------------------------------
;  Function 'HARVESTER_WASP_1'                   -
;-------------------------------------------------
HARVESTER_WASP_1:
   28af0:	52                   	push   edx
   28af1:	b8 cb 7a 00 00       	mov    eax,@obj3:global_cpp_variable_69                             ; fixup: num: 6302, src obj: 1, src ofs: 0x28af2, dst obj: 3, dst ofs: 0x7acb
   28af6:	31 d2                	xor    edx,edx
   28af8:	e8 53 9a 03 00       	call   play_fvi
   28afd:	5a                   	pop    edx
   28afe:	c3                   	ret    
   28aff:	90                   	nop

;-------------------------------------------------
;  Function 'HARVESTER_WASP_2'                   -
;-------------------------------------------------
HARVESTER_WASP_2:
   28b00:	52                   	push   edx
   28b01:	b8 e1 7a 00 00       	mov    eax,@obj3:global_cpp_variable_70                             ; fixup: num: 6301, src obj: 1, src ofs: 0x28b02, dst obj: 3, dst ofs: 0x7ae1
   28b06:	31 d2                	xor    edx,edx
   28b08:	e8 43 9a 03 00       	call   play_fvi
   28b0d:	5a                   	pop    edx
   28b0e:	c3                   	ret    
   28b0f:	90                   	nop

;-------------------------------------------------
;  Function 'DAD_CLOSEUP_1'                      -
;-------------------------------------------------
DAD_CLOSEUP_1:
   28b10:	52                   	push   edx
   28b11:	b8 f7 7a 00 00       	mov    eax,@obj3:global_cpp_variable_71                             ; fixup: num: 6300, src obj: 1, src ofs: 0x28b12, dst obj: 3, dst ofs: 0x7af7
   28b16:	31 d2                	xor    edx,edx
   28b18:	e8 33 9a 03 00       	call   play_fvi
   28b1d:	5a                   	pop    edx
   28b1e:	c3                   	ret    
   28b1f:	90                   	nop

;-------------------------------------------------
;  Function 'DAD_CLOSEUP_2'                      -
;-------------------------------------------------
DAD_CLOSEUP_2:
   28b20:	52                   	push   edx
   28b21:	b8 0e 7b 00 00       	mov    eax,@obj3:global_cpp_variable_72                             ; fixup: num: 6319, src obj: 1, src ofs: 0x28b22, dst obj: 3, dst ofs: 0x7b0e
   28b26:	31 d2                	xor    edx,edx
   28b28:	e8 23 9a 03 00       	call   play_fvi
   28b2d:	5a                   	pop    edx
   28b2e:	c3                   	ret    
   28b2f:	90                   	nop

;-------------------------------------------------
;  Function 'VALET_WIDE_ANGLE'                   -
;-------------------------------------------------
VALET_WIDE_ANGLE:
   28b30:	52                   	push   edx
   28b31:	b8 25 7b 00 00       	mov    eax,@obj3:global_cpp_variable_73                             ; fixup: num: 6318, src obj: 1, src ofs: 0x28b32, dst obj: 3, dst ofs: 0x7b25
   28b36:	31 d2                	xor    edx,edx
   28b38:	e8 13 9a 03 00       	call   play_fvi
   28b3d:	5a                   	pop    edx
   28b3e:	c3                   	ret    
   28b3f:	90                   	nop

;-------------------------------------------------
;  Function 'BUCKY_INTERRUPTS_WHALEY'            -
;-------------------------------------------------
BUCKY_INTERRUPTS_WHALEY:
   28b40:	52                   	push   edx
   28b41:	b8 3e 7b 00 00       	mov    eax,@obj3:global_cpp_variable_74                             ; fixup: num: 6317, src obj: 1, src ofs: 0x28b42, dst obj: 3, dst ofs: 0x7b3e
   28b46:	31 d2                	xor    edx,edx
   28b48:	e8 03 9a 03 00       	call   play_fvi
   28b4d:	5a                   	pop    edx
   28b4e:	c3                   	ret    
   28b4f:	90                   	nop

;-------------------------------------------------
;  Function                                      -
;  'BUCKY_SITS_IN_CORNER_WITH_DUNCE_CAP'         -
;-------------------------------------------------
BUCKY_SITS_IN_CORNER_WITH_DUNCE_CAP:
   28b50:	52                   	push   edx
   28b51:	b8 53 7b 00 00       	mov    eax,@obj3:global_cpp_variable_75                             ; fixup: num: 6316, src obj: 1, src ofs: 0x28b52, dst obj: 3, dst ofs: 0x7b53
   28b56:	31 d2                	xor    edx,edx
   28b58:	e8 f3 99 03 00       	call   play_fvi
   28b5d:	5a                   	pop    edx
   28b5e:	c3                   	ret    
   28b5f:	90                   	nop

;-------------------------------------------------
;  Function 'CHECKER_BOARD_PAN'                  -
;-------------------------------------------------
CHECKER_BOARD_PAN:
   28b60:	52                   	push   edx
   28b61:	b8 68 7b 00 00       	mov    eax,@obj3:global_cpp_variable_76                             ; fixup: num: 6315, src obj: 1, src ofs: 0x28b62, dst obj: 3, dst ofs: 0x7b68
   28b66:	31 d2                	xor    edx,edx
   28b68:	e8 e3 99 03 00       	call   play_fvi
   28b6d:	5a                   	pop    edx
   28b6e:	c3                   	ret    
   28b6f:	90                   	nop

;-------------------------------------------------
;  Function 'BODIES_UPSTAIRS_AT_WAYWARD_HOTEL'   -
;-------------------------------------------------
BODIES_UPSTAIRS_AT_WAYWARD_HOTEL:
   28b70:	52                   	push   edx
   28b71:	b8 7d 7b 00 00       	mov    eax,@obj3:global_cpp_variable_77                             ; fixup: num: 6314, src obj: 1, src ofs: 0x28b72, dst obj: 3, dst ofs: 0x7b7d
   28b76:	31 d2                	xor    edx,edx
   28b78:	e8 d3 99 03 00       	call   play_fvi
   28b7d:	5a                   	pop    edx
   28b7e:	c3                   	ret    
   28b7f:	90                   	nop

;-------------------------------------------------
;  Function 'SERGEANT_LOOKS_AT_CARD_INVITATION'  -
;-------------------------------------------------
SERGEANT_LOOKS_AT_CARD_INVITATION:
   28b80:	52                   	push   edx
   28b81:	b8 92 7b 00 00       	mov    eax,@obj3:global_cpp_variable_78                             ; fixup: num: 6313, src obj: 1, src ofs: 0x28b82, dst obj: 3, dst ofs: 0x7b92
   28b86:	31 d2                	xor    edx,edx
   28b88:	e8 c3 99 03 00       	call   play_fvi
   28b8d:	5a                   	pop    edx
   28b8e:	c3                   	ret    
   28b8f:	90                   	nop

;-------------------------------------------------
;  Function 'POTTSDAM_DIGGING_IN_CEMETARY'       -
;-------------------------------------------------
POTTSDAM_DIGGING_IN_CEMETARY:
   28b90:	52                   	push   edx
   28b91:	b8 a7 7b 00 00       	mov    eax,@obj3:global_cpp_variable_79                             ; fixup: num: 6312, src obj: 1, src ofs: 0x28b92, dst obj: 3, dst ofs: 0x7ba7
   28b96:	31 d2                	xor    edx,edx
   28b98:	e8 b3 99 03 00       	call   play_fvi
   28b9d:	5a                   	pop    edx
   28b9e:	c3                   	ret    
   28b9f:	90                   	nop

;-------------------------------------------------
;  Function 'MISSING_KARIN_POSTER_IN_DINER'      -
;-------------------------------------------------
MISSING_KARIN_POSTER_IN_DINER:
   28ba0:	52                   	push   edx
   28ba1:	b8 bd 7b 00 00       	mov    eax,@obj3:global_cpp_variable_80                             ; fixup: num: 6311, src obj: 1, src ofs: 0x28ba2, dst obj: 3, dst ofs: 0x7bbd
   28ba6:	31 d2                	xor    edx,edx
   28ba8:	e8 a3 99 03 00       	call   play_fvi
   28bad:	5a                   	pop    edx
   28bae:	c3                   	ret    
   28baf:	90                   	nop

;-------------------------------------------------
;  Function 'HANK_WATCHING_RANGE_RYDER'          -
;-------------------------------------------------
HANK_WATCHING_RANGE_RYDER:
   28bb0:	52                   	push   edx
   28bb1:	b8 d2 7b 00 00       	mov    eax,@obj3:global_cpp_variable_81                             ; fixup: num: 6310, src obj: 1, src ofs: 0x28bb2, dst obj: 3, dst ofs: 0x7bd2
   28bb6:	31 d2                	xor    edx,edx
   28bb8:	e8 93 99 03 00       	call   play_fvi
   28bbd:	5a                   	pop    edx
   28bbe:	c3                   	ret    
   28bbf:	90                   	nop

;-------------------------------------------------
;  Function 'get_day'                            -
;-------------------------------------------------
get_day:
   28bc0:	b8 eb 7b 00 00       	mov    eax,@obj3:global_cpp_variable_82                             ; fixup: num: 6309, src obj: 1, src ofs: 0x28bc1, dst obj: 3, dst ofs: 0x7beb
   28bc5:	e8 c6 3b 04 00       	call   check_script_flag
   28bca:	84 c0                	test   al,al
   28bcc:	74 06                	je     get_day_branch_1
   28bce:	b8 01 00 00 00       	mov    eax,0x1
   28bd3:	c3                   	ret    
get_day_branch_1:
   28bd4:	b8 f1 7b 00 00       	mov    eax,@obj3:global_cpp_variable_83                             ; fixup: num: 6328, src obj: 1, src ofs: 0x28bd5, dst obj: 3, dst ofs: 0x7bf1
   28bd9:	e8 b2 3b 04 00       	call   check_script_flag
   28bde:	84 c0                	test   al,al
   28be0:	75 0e                	jne    get_day_branch_2
   28be2:	b8 f7 7b 00 00       	mov    eax,@obj3:global_cpp_variable_84                             ; fixup: num: 6327, src obj: 1, src ofs: 0x28be3, dst obj: 3, dst ofs: 0x7bf7
   28be7:	e8 a4 3b 04 00       	call   check_script_flag
   28bec:	84 c0                	test   al,al
   28bee:	74 06                	je     get_day_branch_3
get_day_branch_2:
   28bf0:	b8 02 00 00 00       	mov    eax,0x2
   28bf5:	c3                   	ret    
get_day_branch_3:
   28bf6:	b8 ff 7b 00 00       	mov    eax,@obj3:global_cpp_variable_85                             ; fixup: num: 6326, src obj: 1, src ofs: 0x28bf7, dst obj: 3, dst ofs: 0x7bff
   28bfb:	e8 90 3b 04 00       	call   check_script_flag
   28c00:	84 c0                	test   al,al
   28c02:	75 0e                	jne    get_day_branch_4
   28c04:	b8 05 7c 00 00       	mov    eax,@obj3:global_cpp_variable_86                             ; fixup: num: 6325, src obj: 1, src ofs: 0x28c05, dst obj: 3, dst ofs: 0x7c05
   28c09:	e8 82 3b 04 00       	call   check_script_flag
   28c0e:	84 c0                	test   al,al
   28c10:	74 06                	je     get_day_branch_5
get_day_branch_4:
   28c12:	b8 03 00 00 00       	mov    eax,0x3
   28c17:	c3                   	ret    
get_day_branch_5:
   28c18:	b8 0d 7c 00 00       	mov    eax,@obj3:global_cpp_variable_87                             ; fixup: num: 6324, src obj: 1, src ofs: 0x28c19, dst obj: 3, dst ofs: 0x7c0d
   28c1d:	e8 6e 3b 04 00       	call   check_script_flag
   28c22:	84 c0                	test   al,al
   28c24:	75 0e                	jne    get_day_branch_6
   28c26:	b8 13 7c 00 00       	mov    eax,@obj3:global_cpp_variable_88                             ; fixup: num: 6323, src obj: 1, src ofs: 0x28c27, dst obj: 3, dst ofs: 0x7c13
   28c2b:	e8 60 3b 04 00       	call   check_script_flag
   28c30:	84 c0                	test   al,al
   28c32:	74 06                	je     get_day_branch_7
get_day_branch_6:
   28c34:	b8 04 00 00 00       	mov    eax,0x4
   28c39:	c3                   	ret    
get_day_branch_7:
   28c3a:	b8 1b 7c 00 00       	mov    eax,@obj3:global_cpp_variable_89                             ; fixup: num: 6322, src obj: 1, src ofs: 0x28c3b, dst obj: 3, dst ofs: 0x7c1b
   28c3f:	e8 4c 3b 04 00       	call   check_script_flag
   28c44:	84 c0                	test   al,al
   28c46:	75 0e                	jne    get_day_branch_8
   28c48:	b8 21 7c 00 00       	mov    eax,@obj3:global_cpp_variable_90                             ; fixup: num: 6321, src obj: 1, src ofs: 0x28c49, dst obj: 3, dst ofs: 0x7c21
   28c4d:	e8 3e 3b 04 00       	call   check_script_flag
   28c52:	84 c0                	test   al,al
   28c54:	74 06                	je     get_day_branch_9
get_day_branch_8:
   28c56:	b8 05 00 00 00       	mov    eax,0x5
   28c5b:	c3                   	ret    
get_day_branch_9:
   28c5c:	b8 29 7c 00 00       	mov    eax,@obj3:global_cpp_variable_91                             ; fixup: num: 6320, src obj: 1, src ofs: 0x28c5d, dst obj: 3, dst ofs: 0x7c29
   28c61:	e8 2a 3b 04 00       	call   check_script_flag
   28c66:	84 c0                	test   al,al
   28c68:	74 06                	je     get_day_branch_10
   28c6a:	b8 06 00 00 00       	mov    eax,0x6
   28c6f:	c3                   	ret    
get_day_branch_10:
   28c70:	31 c0                	xor    eax,eax
   28c72:	c3                   	ret    
;-------------------------------------------------
;  Bad code 55 (zero after ret):                 -
;-------------------------------------------------
;  28c70:	31 c0                	xor    eax,eax
;  28c72:	c3                   	ret    
;  28c73:	00 00                	add    BYTE PTR [eax],al
;  28c75:	00 00                	add    BYTE PTR [eax],al
;-------------------------------------------------
;  Padding data (13 bytes):                      -
;-------------------------------------------------
   28c73:	00 00 00 00 00 00 .. 	db     13 dup(0x00)
;-------------------------------------------------
;  End of bad code 55                            -
;-------------------------------------------------

;-------------------------------------------------------------------------------
;                                                                              -
;  End of module 60 (D:\SOURCE\global.cpp)                                     -
;                                                                              -
;-------------------------------------------------------------------------------

;-------------------------------------------------------------------------------
;                                                                              -
;  Module 60: D:\SOURCE\global.cpp                                             -
;                                                                              -
;-------------------------------------------------------------------------------
global_cpp_variable_1:
    7550:	47 52 41 50 48 49 43 2f 46 53 54 2f 43 30 31 39 42 2e 46 53 54 00 	db     "GRAPHIC/FST/C019B.FST",0x00
global_cpp_variable_2:
    7566:	47 52 41 50 48 49 43 2f 46 53 54 2f 43 31 33 35 2e 46 53 54 00 	db     "GRAPHIC/FST/C135.FST",0x00
global_cpp_variable_3:
    757b:	47 52 41 50 48 49 43 2f 46 53 54 2f 43 31 32 37 2e 46 53 54 00 	db     "GRAPHIC/FST/C127.FST",0x00
global_cpp_variable_4:
    7590:	47 52 41 50 48 49 43 2f 46 53 54 2f 43 30 39 36 2e 46 53 54 00 	db     "GRAPHIC/FST/C096.FST",0x00
global_cpp_variable_5:
    75a5:	47 52 41 50 48 49 43 2f 46 53 54 2f 43 30 39 36 41 2e 46 53 54 00 	db     "GRAPHIC/FST/C096A.FST",0x00
global_cpp_variable_6:
    75bb:	47 52 41 50 48 49 43 2f 46 53 54 2f 4e 55 44 45 54 41 54 55 2e 46 53 54 00 	db     "GRAPHIC/FST/NUDETATU.FST",0x00
global_cpp_variable_7:
    75d4:	47 52 41 50 48 49 43 2f 46 53 54 2f 43 30 39 37 2e 46 53 54 00 	db     "GRAPHIC/FST/C097.FST",0x00
global_cpp_variable_8:
    75e9:	47 52 41 50 48 49 43 2f 46 53 54 2f 43 30 39 38 2e 46 53 54 00 	db     "GRAPHIC/FST/C098.FST",0x00
global_cpp_variable_9:
    75fe:	47 52 41 50 48 49 43 2f 46 53 54 2f 43 30 36 33 41 2e 46 53 54 00 	db     "GRAPHIC/FST/C063A.FST",0x00
global_cpp_variable_10:
    7614:	47 52 41 50 48 49 43 2f 46 53 54 2f 43 30 36 33 42 2e 46 53 54 00 	db     "GRAPHIC/FST/C063B.FST",0x00
global_cpp_variable_11:
    762a:	47 52 41 50 48 49 43 2f 46 53 54 2f 43 30 36 33 44 2e 46 53 54 00 	db     "GRAPHIC/FST/C063D.FST",0x00
global_cpp_variable_12:
    7640:	47 52 41 50 48 49 43 2f 46 53 54 2f 43 30 36 33 45 2e 46 53 54 00 	db     "GRAPHIC/FST/C063E.FST",0x00
global_cpp_variable_13:
    7656:	47 52 41 50 48 49 43 2f 46 53 54 2f 43 31 30 31 2e 46 53 54 00 	db     "GRAPHIC/FST/C101.FST",0x00
global_cpp_variable_14:
    766b:	47 52 41 50 48 49 43 2f 46 53 54 2f 43 30 32 31 2e 46 53 54 00 	db     "GRAPHIC/FST/C021.FST",0x00
global_cpp_variable_15:
    7680:	47 52 41 50 48 49 43 2f 46 53 54 2f 43 31 31 30 2e 46 53 54 00 	db     "GRAPHIC/FST/C110.FST",0x00
global_cpp_variable_16:
    7695:	47 52 41 50 48 49 43 2f 46 53 54 2f 43 30 39 33 2e 46 53 54 00 	db     "GRAPHIC/FST/C093.FST",0x00
global_cpp_variable_17:
    76aa:	47 52 41 50 48 49 43 2f 46 53 54 2f 43 30 39 34 2e 46 53 54 00 	db     "GRAPHIC/FST/C094.FST",0x00
global_cpp_variable_18:
    76bf:	47 52 41 50 48 49 43 2f 46 53 54 2f 43 30 34 38 2e 46 53 54 00 	db     "GRAPHIC/FST/C048.FST",0x00
global_cpp_variable_19:
    76d4:	47 52 41 50 48 49 43 2f 46 53 54 2f 43 30 34 34 2e 46 53 54 00 	db     "GRAPHIC/FST/C044.FST",0x00
global_cpp_variable_20:
    76e9:	47 52 41 50 48 49 43 2f 46 53 54 2f 43 30 35 35 2e 46 53 54 00 	db     "GRAPHIC/FST/C055.FST",0x00
global_cpp_variable_21:
    76fe:	47 52 41 50 48 49 43 2f 46 53 54 2f 43 30 35 32 2e 46 53 54 00 	db     "GRAPHIC/FST/C052.FST",0x00
global_cpp_variable_22:
    7713:	47 52 41 50 48 49 43 2f 46 53 54 2f 43 31 33 32 2e 46 53 54 00 	db     "GRAPHIC/FST/C132.FST",0x00
global_cpp_variable_23:
    7728:	47 52 41 50 48 49 43 2f 46 53 54 2f 43 30 35 33 2e 46 53 54 00 	db     "GRAPHIC/FST/C053.FST",0x00
global_cpp_variable_24:
    773d:	47 52 41 50 48 49 43 2f 46 53 54 2f 43 31 31 37 2e 46 53 54 00 	db     "GRAPHIC/FST/C117.FST",0x00
global_cpp_variable_25:
    7752:	47 52 41 50 48 49 43 2f 46 53 54 2f 43 30 38 35 2e 46 53 54 00 	db     "GRAPHIC/FST/C085.FST",0x00
global_cpp_variable_26:
    7767:	47 52 41 50 48 49 43 2f 46 53 54 2f 43 30 38 36 2e 46 53 54 00 	db     "GRAPHIC/FST/C086.FST",0x00
global_cpp_variable_27:
    777c:	47 52 41 50 48 49 43 2f 46 53 54 2f 43 30 35 38 2e 46 53 54 00 	db     "GRAPHIC/FST/C058.FST",0x00
global_cpp_variable_28:
    7791:	47 52 41 50 48 49 43 2f 46 53 54 2f 54 4f 52 43 48 32 2e 46 53 54 00 	db     "GRAPHIC/FST/TORCH2.FST",0x00
global_cpp_variable_29:
    77a8:	47 52 41 50 48 49 43 2f 46 53 54 2f 43 31 31 39 2e 46 53 54 00 	db     "GRAPHIC/FST/C119.FST",0x00
global_cpp_variable_30:
    77bd:	47 52 41 50 48 49 43 2f 46 53 54 2f 43 31 31 39 41 2e 46 53 54 00 	db     "GRAPHIC/FST/C119A.FST",0x00
global_cpp_variable_31:
    77d3:	47 52 41 50 48 49 43 2f 46 53 54 2f 43 31 31 39 42 2e 46 53 54 00 	db     "GRAPHIC/FST/C119B.FST",0x00
global_cpp_variable_32:
    77e9:	47 52 41 50 48 49 43 2f 46 53 54 2f 43 31 31 39 43 2e 46 53 54 00 	db     "GRAPHIC/FST/C119C.FST",0x00
global_cpp_variable_33:
    77ff:	47 52 41 50 48 49 43 2f 46 53 54 2f 43 30 36 30 2e 46 53 54 00 	db     "GRAPHIC/FST/C060.FST",0x00
global_cpp_variable_34:
    7814:	47 52 41 50 48 49 43 2f 46 53 54 2f 43 30 36 30 41 2e 46 53 54 00 	db     "GRAPHIC/FST/C060A.FST",0x00
global_cpp_variable_35:
    782a:	47 52 41 50 48 49 43 2f 46 53 54 2f 43 31 32 33 2e 46 53 54 00 	db     "GRAPHIC/FST/C123.FST",0x00
global_cpp_variable_36:
    783f:	47 52 41 50 48 49 43 2f 46 53 54 2f 43 31 32 33 41 2e 46 53 54 00 	db     "GRAPHIC/FST/C123A.FST",0x00
global_cpp_variable_37:
    7855:	47 52 41 50 48 49 43 2f 46 53 54 2f 43 31 32 33 42 2e 46 53 54 00 	db     "GRAPHIC/FST/C123B.FST",0x00
global_cpp_variable_38:
    786b:	47 52 41 50 48 49 43 2f 46 53 54 2f 43 30 36 30 2e 46 53 54 00 	db     "GRAPHIC/FST/C060.FST",0x00
global_cpp_variable_39:
    7880:	47 52 41 50 48 49 43 2f 46 53 54 2f 43 31 32 33 2e 46 53 54 00 	db     "GRAPHIC/FST/C123.FST",0x00
global_cpp_variable_40:
    7895:	47 52 41 50 48 49 43 2f 46 53 54 2f 43 30 30 38 41 2e 46 53 54 00 	db     "GRAPHIC/FST/C008A.FST",0x00
global_cpp_variable_41:
    78ab:	47 52 41 50 48 49 43 2f 46 53 54 2f 43 30 30 38 42 2e 46 53 54 00 	db     "GRAPHIC/FST/C008B.FST",0x00
global_cpp_variable_42:
    78c1:	47 52 41 50 48 49 43 2f 46 53 54 2f 43 30 30 39 2e 46 53 54 00 	db     "GRAPHIC/FST/C009.FST",0x00
global_cpp_variable_43:
    78d6:	47 52 41 50 48 49 43 2f 46 53 54 2f 43 30 31 30 2e 46 53 54 00 	db     "GRAPHIC/FST/C010.FST",0x00
global_cpp_variable_44:
    78eb:	47 52 41 50 48 49 43 2f 46 53 54 2f 43 30 37 33 2e 46 53 54 00 	db     "GRAPHIC/FST/C073.FST",0x00
global_cpp_variable_45:
    7900:	47 52 41 50 48 49 43 2f 46 53 54 2f 43 30 34 30 2e 46 53 54 00 	db     "GRAPHIC/FST/C040.FST",0x00
global_cpp_variable_46:
    7915:	53 54 45 50 48 5f 4d 49 44 47 41 4d 45 5f 50 4c 41 59 45 44 00 	db     "STEPH_MIDGAME_PLAYED",0x00
global_cpp_variable_47:
    792a:	47 52 41 50 48 49 43 2f 46 53 54 2f 43 30 30 31 42 2e 46 53 54 00 	db     "GRAPHIC/FST/C001B.FST",0x00
global_cpp_variable_48:
    7940:	47 52 41 50 48 49 43 2f 46 53 54 2f 43 30 34 31 41 2e 46 53 54 00 	db     "GRAPHIC/FST/C041A.FST",0x00
global_cpp_variable_49:
    7956:	47 52 41 50 48 49 43 2f 46 53 54 2f 43 30 34 31 42 2e 46 53 54 00 	db     "GRAPHIC/FST/C041B.FST",0x00
global_cpp_variable_50:
    796c:	47 52 41 50 48 49 43 2f 46 53 54 2f 43 30 31 31 2e 46 53 54 00 	db     "GRAPHIC/FST/C011.FST",0x00
global_cpp_variable_51:
    7981:	47 52 41 50 48 49 43 2f 46 53 54 2f 43 30 39 31 2e 46 53 54 00 	db     "GRAPHIC/FST/C091.FST",0x00
global_cpp_variable_52:
    7996:	47 52 41 50 48 49 43 2f 46 53 54 2f 43 30 34 33 4b 2e 46 53 54 00 	db     "GRAPHIC/FST/C043K.FST",0x00
global_cpp_variable_53:
    79ac:	53 49 47 4e 4f 55 54 00 	db     "SIGNOUT",0x00
global_cpp_variable_54:
    79b4:	44 4e 41 45 58 54 00 	db     "DNAEXT",0x00
global_cpp_variable_55:
    79bb:	47 52 41 50 48 49 43 2f 46 53 54 2f 43 30 34 33 2e 46 53 54 00 	db     "GRAPHIC/FST/C043.FST",0x00
global_cpp_variable_56:
    79d0:	53 49 47 4e 4f 55 54 00 	db     "SIGNOUT",0x00
global_cpp_variable_57:
    79d8:	44 4e 41 45 58 54 00 	db     "DNAEXT",0x00
global_cpp_variable_58:
    79df:	47 52 41 50 48 49 43 2f 46 53 54 2f 43 31 35 30 2e 46 53 54 00 	db     "GRAPHIC/FST/C150.FST",0x00
global_cpp_variable_59:
    79f4:	47 52 41 50 48 49 43 2f 46 53 54 2f 43 30 37 36 2e 46 53 54 00 	db     "GRAPHIC/FST/C076.FST",0x00
global_cpp_variable_60:
    7a09:	47 52 41 50 48 49 43 2f 46 53 54 2f 43 30 32 32 41 2e 46 53 54 00 	db     "GRAPHIC/FST/C022A.FST",0x00
global_cpp_variable_61:
    7a1f:	47 52 41 50 48 49 43 2f 46 53 54 2f 43 30 32 32 42 2e 46 53 54 00 	db     "GRAPHIC/FST/C022B.FST",0x00
global_cpp_variable_62:
    7a35:	47 52 41 50 48 49 43 2f 46 53 54 2f 43 30 32 33 41 2e 46 53 54 00 	db     "GRAPHIC/FST/C023A.FST",0x00
global_cpp_variable_63:
    7a4b:	47 52 41 50 48 49 43 2f 46 53 54 2f 43 30 32 35 42 2e 46 53 54 00 	db     "GRAPHIC/FST/C025B.FST",0x00
global_cpp_variable_64:
    7a61:	47 52 41 50 48 49 43 2f 46 53 54 2f 43 30 30 37 2e 46 53 54 00 	db     "GRAPHIC/FST/C007.FST",0x00
global_cpp_variable_65:
    7a76:	47 52 41 50 48 49 43 2f 46 53 54 2f 43 30 32 35 41 2e 46 53 54 00 	db     "GRAPHIC/FST/C025A.FST",0x00
global_cpp_variable_66:
    7a8c:	47 52 41 50 48 49 43 2f 46 53 54 2f 43 31 30 39 2e 46 53 54 00 	db     "GRAPHIC/FST/C109.FST",0x00
global_cpp_variable_67:
    7aa1:	47 52 41 50 48 49 43 2f 46 53 54 2f 43 30 32 30 2e 46 53 54 00 	db     "GRAPHIC/FST/C020.FST",0x00
global_cpp_variable_68:
    7ab6:	47 52 41 50 48 49 43 2f 46 53 54 2f 43 30 37 32 2e 46 53 54 00 	db     "GRAPHIC/FST/C072.FST",0x00
global_cpp_variable_69:
    7acb:	47 52 41 50 48 49 43 2f 46 53 54 2f 43 30 32 37 41 2e 46 53 54 00 	db     "GRAPHIC/FST/C027A.FST",0x00
global_cpp_variable_70:
    7ae1:	47 52 41 50 48 49 43 2f 46 53 54 2f 43 30 32 37 42 2e 46 53 54 00 	db     "GRAPHIC/FST/C027B.FST",0x00
global_cpp_variable_71:
    7af7:	47 52 41 50 48 49 43 2f 46 53 54 2f 43 31 31 32 53 37 2e 46 53 54 00 	db     "GRAPHIC/FST/C112S7.FST",0x00
global_cpp_variable_72:
    7b0e:	47 52 41 50 48 49 43 2f 46 53 54 2f 43 31 31 32 53 34 2e 46 53 54 00 	db     "GRAPHIC/FST/C112S4.FST",0x00
global_cpp_variable_73:
    7b25:	47 52 41 50 48 49 43 2f 46 53 54 2f 4d 49 44 47 45 54 30 32 2e 46 53 54 00 	db     "GRAPHIC/FST/MIDGET02.FST",0x00
global_cpp_variable_74:
    7b3e:	47 52 41 50 48 49 43 2f 46 53 54 2f 43 30 35 36 2e 46 53 54 00 	db     "GRAPHIC/FST/C056.FST",0x00
global_cpp_variable_75:
    7b53:	47 52 41 50 48 49 43 2f 46 53 54 2f 43 30 35 37 2e 46 53 54 00 	db     "GRAPHIC/FST/C057.FST",0x00
global_cpp_variable_76:
    7b68:	47 52 41 50 48 49 43 2f 46 53 54 2f 43 30 33 31 2e 46 53 54 00 	db     "GRAPHIC/FST/C031.FST",0x00
global_cpp_variable_77:
    7b7d:	47 52 41 50 48 49 43 2f 46 53 54 2f 43 31 33 39 2e 46 53 54 00 	db     "GRAPHIC/FST/C139.FST",0x00
global_cpp_variable_78:
    7b92:	47 52 41 50 48 49 43 2f 46 53 54 2f 43 31 34 39 2e 46 53 54 00 	db     "GRAPHIC/FST/C149.FST",0x00
global_cpp_variable_79:
    7ba7:	47 52 41 50 48 49 43 2f 46 53 54 2f 43 30 31 36 41 2e 46 53 54 00 	db     "GRAPHIC/FST/C016A.FST",0x00
global_cpp_variable_80:
    7bbd:	47 52 41 50 48 49 43 2f 46 53 54 2f 43 30 37 30 2e 46 53 54 00 	db     "GRAPHIC/FST/C070.FST",0x00
global_cpp_variable_81:
    7bd2:	47 52 41 50 48 49 43 2f 46 53 54 2f 52 41 4e 47 53 48 4f 54 2e 46 53 54 00 	db     "GRAPHIC/FST/RANGSHOT.FST",0x00
global_cpp_variable_82:
    7beb:	44 41 59 5f 31 00    	db     "DAY_1",0x00
global_cpp_variable_83:
    7bf1:	44 41 59 5f 32 00    	db     "DAY_2",0x00
global_cpp_variable_84:
    7bf7:	4e 49 47 48 54 5f 32 00 	db     "NIGHT_2",0x00
global_cpp_variable_85:
    7bff:	44 41 59 5f 33 00    	db     "DAY_3",0x00
global_cpp_variable_86:
    7c05:	4e 49 47 48 54 5f 33 00 	db     "NIGHT_3",0x00
global_cpp_variable_87:
    7c0d:	44 41 59 5f 34 00    	db     "DAY_4",0x00
global_cpp_variable_88:
    7c13:	4e 49 47 48 54 5f 34 00 	db     "NIGHT_4",0x00
global_cpp_variable_89:
    7c1b:	44 41 59 5f 35 00    	db     "DAY_5",0x00
global_cpp_variable_90:
    7c21:	4e 49 47 48 54 5f 35 00 	db     "NIGHT_5",0x00
global_cpp_variable_91:
    7c29:	44 41 59 5f 36 00    	db     "DAY_6",0x00
    7c2f:	00                   	db     0x00                                                         ; dec:   0, chr: '\0'

;-------------------------------------------------------------------------------
;                                                                              -
;  End of module 60 (D:\SOURCE\global.cpp)                                     -
;                                                                              -
;-------------------------------------------------------------------------------

;-------------------------------------------------------------------------------
;                                                                              -
;  Module 60: D:\SOURCE\global.cpp                                             -
;                                                                              -
;-------------------------------------------------------------------------------
GLOBAL:                                                                                             ; access size: DWORD
   22e98:	00 00 00 00          	dd     0x00000000
GLOBAL_variable_1:                                                                                  ; access size: DWORD
   22e9c:	00 00 00 00          	dd     0x00000000
GLOBAL_variable_2:                                                                                  ; access size: DWORD
   22ea0:	00 00 00 00          	dd     0x00000000
GLOBAL_variable_3:                                                                                  ; access size: DWORD
   22ea4:	00 00 00 00          	dd     0x00000000
GLOBAL_variable_4:                                                                                  ; access size: DWORD
   22ea8:	00 00 00 00          	dd     0x00000000
GLOBAL_variable_5:                                                                                  ; access size: DWORD
   22eac:	00 00 00 00          	dd     0x00000000
GLOBAL_variable_6:                                                                                  ; access size: DWORD
   22eb0:	00 00 00 00          	dd     0x00000000
GLOBAL_variable_7:                                                                                  ; access size: DWORD
   22eb4:	00 00 00 00          	dd     0x00000000
GLOBAL_variable_8:                                                                                  ; access size: DWORD
   22eb8:	00 00 00 00          	dd     0x00000000
GLOBAL_variable_9:                                                                                  ; access size: DWORD
   22ebc:	00 00 00 00          	dd     0x00000000
GLOBAL_variable_10:                                                                                 ; access size: DWORD
   22ec0:	00 00 00 00          	dd     0x00000000
GLOBAL_variable_11:                                                                                 ; access size: DWORD
   22ec4:	00 00 00 00          	dd     0x00000000
GLOBAL_variable_12:                                                                                 ; access size: DWORD
   22ec8:	00 00 00 00          	dd     0x00000000
GLOBAL_variable_13:                                                                                 ; access size: DWORD
   22ecc:	00 00 00 00          	dd     0x00000000
GLOBAL_variable_14:                                                                                 ; access size: DWORD
   22ed0:	00 00 00 00          	dd     0x00000000
GLOBAL_variable_15:                                                                                 ; access size: DWORD
   22ed4:	00 00 00 00          	dd     0x00000000
GLOBAL_variable_16:                                                                                 ; access size: DWORD
   22ed8:	00 00 00 00          	dd     0x00000000
GLOBAL_variable_17:                                                                                 ; access size: DWORD
   22edc:	00 00 00 00          	dd     0x00000000
GLOBAL_variable_18:                                                                                 ; access size: DWORD
   22ee0:	00 00 00 00          	dd     0x00000000
GLOBAL_variable_19:                                                                                 ; access size: DWORD
   22ee4:	00 00 00 00          	dd     0x00000000
GLOBAL_variable_20:                                                                                 ; access size: DWORD
   22ee8:	00 00 00 00          	dd     0x00000000
GLOBAL_variable_21:                                                                                 ; access size: DWORD
   22eec:	00 00 00 00          	dd     0x00000000
GLOBAL_variable_22:                                                                                 ; access size: DWORD
   22ef0:	00 00 00 00          	dd     0x00000000
GLOBAL_variable_23:                                                                                 ; access size: DWORD
   22ef4:	00 00 00 00          	dd     0x00000000
GLOBAL_variable_24:                                                                                 ; access size: DWORD
   22ef8:	00 00 00 00          	dd     0x00000000
GLOBAL_variable_25:                                                                                 ; access size: DWORD
   22efc:	00 00 00 00          	dd     0x00000000
GLOBAL_variable_26:                                                                                 ; access size: DWORD
   22f00:	00 00 00 00          	dd     0x00000000
GLOBAL_variable_27:                                                                                 ; access size: DWORD
   22f04:	00 00 00 00          	dd     0x00000000
GLOBAL_variable_28:                                                                                 ; access size: DWORD
   22f08:	00 00 00 00          	dd     0x00000000
GLOBAL_variable_29:                                                                                 ; access size: DWORD
   22f0c:	00 00 00 00          	dd     0x00000000
GLOBAL_variable_30:                                                                                 ; access size: DWORD
   22f10:	00 00 00 00          	dd     0x00000000
GLOBAL_variable_31:                                                                                 ; access size: DWORD
   22f14:	00 00 00 00          	dd     0x00000000
GLOBAL_variable_32:                                                                                 ; access size: DWORD
   22f18:	00 00 00 00          	dd     0x00000000
GLOBAL_variable_33:                                                                                 ; access size: DWORD
   22f1c:	00 00 00 00          	dd     0x00000000
GLOBAL_variable_34:                                                                                 ; access size: DWORD
   22f20:	00 00 00 00          	dd     0x00000000
GLOBAL_variable_35:                                                                                 ; access size: DWORD
   22f24:	00 00 00 00          	dd     0x00000000
GLOBAL_variable_36:                                                                                 ; access size: DWORD
   22f28:	00 00 00 00          	dd     0x00000000
GLOBAL_variable_37:                                                                                 ; access size: DWORD
   22f2c:	00 00 00 00          	dd     0x00000000
GLOBAL_variable_38:                                                                                 ; access size: DWORD
   22f30:	00 00 00 00          	dd     0x00000000

;-------------------------------------------------------------------------------
;                                                                              -
;  End of module 60 (D:\SOURCE\global.cpp)                                     -
;                                                                              -
;-------------------------------------------------------------------------------